Component: ARM Compiler 5.06 update 4 (build 422) Tool: armlink [4d35d2]

==============================================================================

Section Cross References

    startup_n32g430.o(STACK) refers (Special) to heapauxi.o(.text) for __use_two_region_memory
    startup_n32g430.o(HEAP) refers (Special) to heapauxi.o(.text) for __use_two_region_memory
    startup_n32g430.o(RESET) refers (Special) to heapauxi.o(.text) for __use_two_region_memory
    startup_n32g430.o(RESET) refers to startup_n32g430.o(STACK) for __initial_sp
    startup_n32g430.o(RESET) refers to startup_n32g430.o(.text) for Reset_Handler
    startup_n32g430.o(RESET) refers to n32g430_it.o(i.NMI_Handler) for NMI_Handler
    startup_n32g430.o(RESET) refers to n32g430_it.o(i.HardFault_Handler) for HardFault_Handler
    startup_n32g430.o(RESET) refers to n32g430_it.o(i.MemManage_Handler) for MemManage_Handler
    startup_n32g430.o(RESET) refers to n32g430_it.o(i.BusFault_Handler) for BusFault_Handler
    startup_n32g430.o(RESET) refers to n32g430_it.o(i.UsageFault_Handler) for UsageFault_Handler
    startup_n32g430.o(RESET) refers to n32g430_it.o(i.SVC_Handler) for SVC_Handler
    startup_n32g430.o(RESET) refers to n32g430_it.o(i.DebugMon_Handler) for DebugMon_Handler
    startup_n32g430.o(RESET) refers to n32g430_it.o(i.SysTick_Handler) for SysTick_Handler
    startup_n32g430.o(RESET) refers to main.o(i.TIM6_IRQHandler) for TIM6_IRQHandler
    startup_n32g430.o(.text) refers (Special) to heapauxi.o(.text) for __use_two_region_memory
    startup_n32g430.o(.text) refers to system_n32g430.o(i.System_Initializes) for System_Initializes
    startup_n32g430.o(.text) refers to __main.o(!!!main) for __main
    startup_n32g430.o(.text) refers to startup_n32g430.o(HEAP) for Heap_Mem
    startup_n32g430.o(.text) refers to startup_n32g430.o(STACK) for Stack_Mem
    bsp_delay.o(i.SysTick_Delay_Ms) refers to n32g430_rcc.o(i.RCC_Clocks_Frequencies_Value_Get) for RCC_Clocks_Frequencies_Value_Get
    bsp_delay.o(i.SysTick_Delay_Ms) refers to bsp_delay.o(i.DBG_SysTick_Config) for DBG_SysTick_Config
    bsp_delay.o(i.SysTick_Delay_Us) refers to n32g430_rcc.o(i.RCC_Clocks_Frequencies_Value_Get) for RCC_Clocks_Frequencies_Value_Get
    bsp_delay.o(i.SysTick_Delay_Us) refers to bsp_delay.o(i.DBG_SysTick_Config) for DBG_SysTick_Config
    n32g430_adc.o(i.ADC_Clock_Mode_Config) refers to n32g430_rcc.o(i.RCC_ADC_Hclk_Enable) for RCC_ADC_Hclk_Enable
    n32g430_adc.o(i.ADC_Clock_Mode_Config) refers to n32g430_rcc.o(i.RCC_ADC_PLL_Clock_Disable) for RCC_ADC_PLL_Clock_Disable
    n32g430_adc.o(i.ADC_Clock_Mode_Config) refers to n32g430_rcc.o(i.RCC_ADC_Hclk_Config) for RCC_ADC_Hclk_Config
    n32g430_adc.o(i.ADC_Clock_Mode_Config) refers to n32g430_adc.o(i.ADC_AHB_Clock_Mode_Config) for ADC_AHB_Clock_Mode_Config
    n32g430_adc.o(i.ADC_Clock_Mode_Config) refers to n32g430_rcc.o(i.RCC_ADC_PLL_Clock_Prescaler_Enable) for RCC_ADC_PLL_Clock_Prescaler_Enable
    n32g430_adc.o(i.ADC_Clock_Mode_Config) refers to n32g430_adc.o(i.ADC_PLL_Clock_Mode_Config) for ADC_PLL_Clock_Mode_Config
    n32g430_adc.o(i.ADC_Initializes) refers to n32g430_adc.o(i.ADC_Multichannels_Enable) for ADC_Multichannels_Enable
    n32g430_adc.o(i.ADC_Initializes) refers to n32g430_adc.o(i.ADC_Multichannels_Disable) for ADC_Multichannels_Disable
    n32g430_adc.o(i.ADC_Initializes) refers to n32g430_adc.o(i.ADC_Continue_Conversion_Enable) for ADC_Continue_Conversion_Enable
    n32g430_adc.o(i.ADC_Initializes) refers to n32g430_adc.o(i.ADC_Continue_Conversion_Disable) for ADC_Continue_Conversion_Disable
    n32g430_adc.o(i.ADC_Initializes) refers to n32g430_adc.o(i.ADC_Regular_Group_External_Trigger_Source_Config) for ADC_Regular_Group_External_Trigger_Source_Config
    n32g430_adc.o(i.ADC_Initializes) refers to n32g430_adc.o(i.ADC_Data_Alignment_Config) for ADC_Data_Alignment_Config
    n32g430_adc.o(i.ADC_Initializes) refers to n32g430_adc.o(i.ADC_Regular_Channels_Number_Config) for ADC_Regular_Channels_Number_Config
    n32g430_adc.o(i.ADC_Initializes_Ex) refers to n32g430_adc.o(i.ADC_Vbat_Monitor_Enable) for ADC_Vbat_Monitor_Enable
    n32g430_adc.o(i.ADC_Initializes_Ex) refers to n32g430_adc.o(i.ADC_Vbat_Monitor_Disable) for ADC_Vbat_Monitor_Disable
    n32g430_adc.o(i.ADC_Initializes_Ex) refers to n32g430_adc.o(i.ADC_Deep_Power_Mode_Enable) for ADC_Deep_Power_Mode_Enable
    n32g430_adc.o(i.ADC_Initializes_Ex) refers to n32g430_adc.o(i.ADC_Deep_Power_Mode_Disable) for ADC_Deep_Power_Mode_Disable
    n32g430_adc.o(i.ADC_Initializes_Ex) refers to n32g430_adc.o(i.ADC_Interrupts_Enable) for ADC_Interrupts_Enable
    n32g430_adc.o(i.ADC_Initializes_Ex) refers to n32g430_adc.o(i.ADC_Interrupts_Disable) for ADC_Interrupts_Disable
    n32g430_adc.o(i.ADC_Initializes_Ex) refers to n32g430_adc.o(i.ADC_PLL_Clock_Mode_Config) for ADC_PLL_Clock_Mode_Config
    n32g430_adc.o(i.ADC_Initializes_Ex) refers to n32g430_adc.o(i.ADC_AHB_Clock_Mode_Config) for ADC_AHB_Clock_Mode_Config
    n32g430_adc.o(i.ADC_Initializes_Ex) refers to n32g430_adc.o(i.ADC_Calibration_Auto_Load_Enable) for ADC_Calibration_Auto_Load_Enable
    n32g430_adc.o(i.ADC_Initializes_Ex) refers to n32g430_adc.o(i.ADC_Calibration_Auto_Load_Disable) for ADC_Calibration_Auto_Load_Disable
    n32g430_adc.o(i.ADC_Initializes_Ex) refers to n32g430_adc.o(i.ADC_Differential_Mode_Enable) for ADC_Differential_Mode_Enable
    n32g430_adc.o(i.ADC_Initializes_Ex) refers to n32g430_adc.o(i.ADC_Differential_Mode_Disable) for ADC_Differential_Mode_Disable
    n32g430_adc.o(i.ADC_Initializes_Ex) refers to n32g430_adc.o(i.ADC_Data_Resolution_Config) for ADC_Data_Resolution_Config
    n32g430_adc.o(i.ADC_Initializes_Ex) refers to n32g430_adc.o(i.ADC_Sample_Time_Level_Config) for ADC_Sample_Time_Level_Config
    n32g430_adc.o(i.ADC_Reset) refers to n32g430_rcc.o(i.RCC_AHB_Peripheral_Reset) for RCC_AHB_Peripheral_Reset
    n32g430_adc.o(i.ADC_Vrefint_Get) refers to n32g430_adc.o(.data) for vrefint_value
    n32g430_beeper.o(i.BEEPER_Initialize) refers to n32g430_beeper.o(i.BEEPER_Clock_Select) for BEEPER_Clock_Select
    n32g430_beeper.o(i.BEEPER_Initialize) refers to n32g430_beeper.o(i.BEEPER_APB_Clock_Prescale_Set) for BEEPER_APB_Clock_Prescale_Set
    n32g430_beeper.o(i.BEEPER_Initialize) refers to n32g430_beeper.o(i.BEEPER_Div_Factor_Select) for BEEPER_Div_Factor_Select
    n32g430_beeper.o(i.BEEPER_Reset) refers to n32g430_rcc.o(i.RCC_APB2_Peripheral_Reset) for RCC_APB2_Peripheral_Reset
    n32g430_can.o(i.CAN_Filter_Initializes) refers to n32g430_can.o(i.CAN_Filter_Initializes_Enable) for CAN_Filter_Initializes_Enable
    n32g430_can.o(i.CAN_Filter_Initializes) refers to n32g430_can.o(i.CAN_Filter_Deactivation) for CAN_Filter_Deactivation
    n32g430_can.o(i.CAN_Filter_Initializes) refers to n32g430_can.o(i.CAN_Filter_Scale_16bit_Set) for CAN_Filter_Scale_16bit_Set
    n32g430_can.o(i.CAN_Filter_Initializes) refers to n32g430_can.o(i.CAN_Filter_Scale_32bit_Set) for CAN_Filter_Scale_32bit_Set
    n32g430_can.o(i.CAN_Filter_Initializes) refers to n32g430_can.o(i.CAN_Filter_Mode_Set) for CAN_Filter_Mode_Set
    n32g430_can.o(i.CAN_Filter_Initializes) refers to n32g430_can.o(i.CAN_Filter_DATA_FIFO_Assign) for CAN_Filter_DATA_FIFO_Assign
    n32g430_can.o(i.CAN_Filter_Initializes) refers to n32g430_can.o(i.CAN_Filter_Activate) for CAN_Filter_Activate
    n32g430_can.o(i.CAN_Filter_Initializes) refers to n32g430_can.o(i.CAN_Filter_Initializes_Disable) for CAN_Filter_Initializes_Disable
    n32g430_can.o(i.CAN_Initializes) refers to n32g430_can.o(i.CAN_Sleep_Mode_Exit) for CAN_Sleep_Mode_Exit
    n32g430_can.o(i.CAN_Initializes) refers to n32g430_can.o(i.CAN_Initializes_Enable) for CAN_Initializes_Enable
    n32g430_can.o(i.CAN_Initializes) refers to n32g430_can.o(i.CAN_Initializes_Wait) for CAN_Initializes_Wait
    n32g430_can.o(i.CAN_Initializes) refers to n32g430_can.o(i.CAN_Time_Trigger_Mode_Enable) for CAN_Time_Trigger_Mode_Enable
    n32g430_can.o(i.CAN_Initializes) refers to n32g430_can.o(i.CAN_Time_Trigger_Mode_Disable) for CAN_Time_Trigger_Mode_Disable
    n32g430_can.o(i.CAN_Initializes) refers to n32g430_can.o(i.CAN_Bus_Off_Enable) for CAN_Bus_Off_Enable
    n32g430_can.o(i.CAN_Initializes) refers to n32g430_can.o(i.CAN_Bus_Off_Disable) for CAN_Bus_Off_Disable
    n32g430_can.o(i.CAN_Initializes) refers to n32g430_can.o(i.CAN_Wake_Up_Mode_Enable) for CAN_Wake_Up_Mode_Enable
    n32g430_can.o(i.CAN_Initializes) refers to n32g430_can.o(i.CAN_Wake_Up_Mode_Disable) for CAN_Wake_Up_Mode_Disable
    n32g430_can.o(i.CAN_Initializes) refers to n32g430_can.o(i.CAN_No_Retransmission_Enable) for CAN_No_Retransmission_Enable
    n32g430_can.o(i.CAN_Initializes) refers to n32g430_can.o(i.CAN_No_Retransmission_Disable) for CAN_No_Retransmission_Disable
    n32g430_can.o(i.CAN_Initializes) refers to n32g430_can.o(i.CAN_DATA_FIFO_Receive_Lock_Enable) for CAN_DATA_FIFO_Receive_Lock_Enable
    n32g430_can.o(i.CAN_Initializes) refers to n32g430_can.o(i.CAN_DATA_FIFO_Receive_Lock_Disable) for CAN_DATA_FIFO_Receive_Lock_Disable
    n32g430_can.o(i.CAN_Initializes) refers to n32g430_can.o(i.CAN_DATA_FIFO_Transmit_Priority_Enable) for CAN_DATA_FIFO_Transmit_Priority_Enable
    n32g430_can.o(i.CAN_Initializes) refers to n32g430_can.o(i.CAN_DATA_FIFO_Transmit_Priority_Disable) for CAN_DATA_FIFO_Transmit_Priority_Disable
    n32g430_can.o(i.CAN_Initializes) refers to n32g430_can.o(i.CAN_Bit_Timing_Set) for CAN_Bit_Timing_Set
    n32g430_can.o(i.CAN_Initializes) refers to n32g430_can.o(i.CAN_Initializes_Disable) for CAN_Initializes_Disable
    n32g430_can.o(i.CAN_Initializes) refers to n32g430_can.o(i.CAN_Initializes_Leave_Wait) for CAN_Initializes_Leave_Wait
    n32g430_can.o(i.CAN_Interrupt_Status_Get) refers to n32g430_can.o(i.Interrupt_Status_Check) for Interrupt_Status_Check
    n32g430_can.o(i.CAN_Reset) refers to n32g430_rcc.o(i.RCC_APB1_Peripheral_Reset) for RCC_APB1_Peripheral_Reset
    n32g430_can.o(i.CAN_Transmit_Message_initializes) refers to n32g430_can.o(i.CAN_Transmit_Message_ID_Config) for CAN_Transmit_Message_ID_Config
    n32g430_can.o(i.CAN_Transmit_Message_initializes) refers to n32g430_can.o(i.CAN_Transmit_Message_DLC_Config) for CAN_Transmit_Message_DLC_Config
    n32g430_can.o(i.CAN_Transmit_Message_initializes) refers to n32g430_can.o(i.CAN_Transmit_Message_Data_Config) for CAN_Transmit_Message_Data_Config
    n32g430_can.o(i.CAN_Transmit_Message_initializes) refers to n32g430_can.o(i.CAN_Transmit_Enable) for CAN_Transmit_Enable
    n32g430_comp.o(i.COMP_Filter_Control_Config) refers to n32g430_comp.o(i.COMP_Filter_SampWindow_Config) for COMP_Filter_SampWindow_Config
    n32g430_comp.o(i.COMP_Filter_Control_Config) refers to n32g430_comp.o(i.COMP_Filter_Threshold_Config) for COMP_Filter_Threshold_Config
    n32g430_comp.o(i.COMP_Filter_Control_Config) refers to n32g430_comp.o(i.COMP_Filter_Enable) for COMP_Filter_Enable
    n32g430_comp.o(i.COMP_Filter_Control_Config) refers to n32g430_comp.o(i.COMP_Filter_Disable) for COMP_Filter_Disable
    n32g430_comp.o(i.COMP_Initializes) refers to n32g430_comp.o(i.COMP_Filter_SampWindow_Config) for COMP_Filter_SampWindow_Config
    n32g430_comp.o(i.COMP_Initializes) refers to n32g430_comp.o(i.COMP_Filter_Threshold_Config) for COMP_Filter_Threshold_Config
    n32g430_comp.o(i.COMP_Initializes) refers to n32g430_comp.o(i.COMP_Filter_Enable) for COMP_Filter_Enable
    n32g430_comp.o(i.COMP_Initializes) refers to n32g430_comp.o(i.COMP_Filter_Disable) for COMP_Filter_Disable
    n32g430_comp.o(i.COMP_Initializes) refers to n32g430_comp.o(i.COMP_Filter_Clock_Prescale_Config) for COMP_Filter_Clock_Prescale_Config
    n32g430_comp.o(i.COMP_Initializes) refers to n32g430_comp.o(i.COMP_Blking_Soucre_Config) for COMP_Blking_Soucre_Config
    n32g430_comp.o(i.COMP_Initializes) refers to n32g430_comp.o(i.COMP_Hysteresis_Level_Config) for COMP_Hysteresis_Level_Config
    n32g430_comp.o(i.COMP_Initializes) refers to n32g430_comp.o(i.COMP_Output_Polarity_Config) for COMP_Output_Polarity_Config
    n32g430_comp.o(i.COMP_Initializes) refers to n32g430_comp.o(i.COMP_InpSel_Config) for COMP_InpSel_Config
    n32g430_comp.o(i.COMP_Initializes) refers to n32g430_comp.o(i.COMP_InmSel_Config) for COMP_InmSel_Config
    n32g430_comp.o(i.COMP_Initializes) refers to n32g430_comp.o(i.COMP_Output_Trigger_Config) for COMP_Output_Trigger_Config
    n32g430_comp.o(i.COMP_Initializes) refers to n32g430_comp.o(i.COMP_ON) for COMP_ON
    n32g430_comp.o(i.COMP_Initializes) refers to n32g430_comp.o(i.COMP_OFF) for COMP_OFF
    n32g430_comp.o(i.COMP_Reset) refers to n32g430_rcc.o(i.RCC_APB1_Peripheral_Reset) for RCC_APB1_Peripheral_Reset
    n32g430_dma.o(i.DMA_Initializes) refers to n32g430_dma.o(i.DMA_Peripheral_Address_Config) for DMA_Peripheral_Address_Config
    n32g430_dma.o(i.DMA_Initializes) refers to n32g430_dma.o(i.DMA_Memory_Address_Config) for DMA_Memory_Address_Config
    n32g430_dma.o(i.DMA_Initializes) refers to n32g430_dma.o(i.DMA_Destination_Config) for DMA_Destination_Config
    n32g430_dma.o(i.DMA_Initializes) refers to n32g430_dma.o(i.DMA_Buffer_Size_Config) for DMA_Buffer_Size_Config
    n32g430_dma.o(i.DMA_Initializes) refers to n32g430_dma.o(i.DMA_Peripheral_Addr_Increment_Config) for DMA_Peripheral_Addr_Increment_Config
    n32g430_dma.o(i.DMA_Initializes) refers to n32g430_dma.o(i.DMA_Memory_Addr_Increment_Config) for DMA_Memory_Addr_Increment_Config
    n32g430_dma.o(i.DMA_Initializes) refers to n32g430_dma.o(i.DMA_Peripheral_Data_Width_Config) for DMA_Peripheral_Data_Width_Config
    n32g430_dma.o(i.DMA_Initializes) refers to n32g430_dma.o(i.DMA_Memory_Data_Width_Config) for DMA_Memory_Data_Width_Config
    n32g430_dma.o(i.DMA_Initializes) refers to n32g430_dma.o(i.DMA_Circular_Mode_Config) for DMA_Circular_Mode_Config
    n32g430_dma.o(i.DMA_Initializes) refers to n32g430_dma.o(i.DMA_Priority_Config) for DMA_Priority_Config
    n32g430_dma.o(i.DMA_Initializes) refers to n32g430_dma.o(i.DMA_Memory_2_Memory_Config) for DMA_Memory_2_Memory_Config
    n32g430_exti.o(i.EXTI_Peripheral_Initializes) refers to n32g430_exti.o(i.EXTI_Work_Mode_Config) for EXTI_Work_Mode_Config
    n32g430_exti.o(i.EXTI_Peripheral_Initializes) refers to n32g430_exti.o(i.EXTI_Trigger_Config) for EXTI_Trigger_Config
    n32g430_exti.o(i.EXTI_Peripheral_Initializes) refers to n32g430_exti.o(i.EXTI_LineCmd_Disable) for EXTI_LineCmd_Disable
    n32g430_flash.o(i.FLASH_Last_Operation_Wait) refers to n32g430_flash.o(i.FLASH_Status_Get) for FLASH_Status_Get
    n32g430_flash.o(i.FLASH_Mass_Erase) refers to n32g430_flash.o(i.FLASH_Flag_Status_Clear) for FLASH_Flag_Status_Clear
    n32g430_flash.o(i.FLASH_Mass_Erase) refers to n32g430_flash.o(i.FLASH_Last_Operation_Wait) for FLASH_Last_Operation_Wait
    n32g430_flash.o(i.FLASH_One_Page_Erase) refers to n32g430_flash.o(i.FLASH_Flag_Status_Clear) for FLASH_Flag_Status_Clear
    n32g430_flash.o(i.FLASH_One_Page_Erase) refers to n32g430_flash.o(i.FLASH_Last_Operation_Wait) for FLASH_Last_Operation_Wait
    n32g430_flash.o(i.FLASH_Option_Bytes_DATA_Program) refers to n32g430_flash.o(i.FLASH_Flag_Status_Clear) for FLASH_Flag_Status_Clear
    n32g430_flash.o(i.FLASH_Option_Bytes_DATA_Program) refers to n32g430_flash.o(i.FLASH_Last_Operation_Wait) for FLASH_Last_Operation_Wait
    n32g430_flash.o(i.FLASH_Option_Bytes_DATA_Program) refers to n32g430_flash.o(i.FLASH_Read_Out_Protection_L2_Status_Get) for FLASH_Read_Out_Protection_L2_Status_Get
    n32g430_flash.o(i.FLASH_Option_Bytes_DATA_Program) refers to n32g430_flash.o(i.Option_Bytes_Unlock) for Option_Bytes_Unlock
    n32g430_flash.o(i.FLASH_Option_Bytes_Erase) refers to n32g430_flash.o(i.FLASH_Read_Out_Protection_L2_Status_Get) for FLASH_Read_Out_Protection_L2_Status_Get
    n32g430_flash.o(i.FLASH_Option_Bytes_Erase) refers to n32g430_flash.o(i.FLASH_Flag_Status_Clear) for FLASH_Flag_Status_Clear
    n32g430_flash.o(i.FLASH_Option_Bytes_Erase) refers to n32g430_flash.o(i.FLASH_Last_Operation_Wait) for FLASH_Last_Operation_Wait
    n32g430_flash.o(i.FLASH_Option_Bytes_Erase) refers to n32g430_flash.o(i.Option_Bytes_Unlock) for Option_Bytes_Unlock
    n32g430_flash.o(i.FLASH_Option_Bytes_User2_RDP2_Program) refers to n32g430_flash.o(i.FLASH_Read_Out_Protection_L2_Status_Get) for FLASH_Read_Out_Protection_L2_Status_Get
    n32g430_flash.o(i.FLASH_Option_Bytes_User2_RDP2_Program) refers to n32g430_flash.o(i.Option_Bytes_Unlock) for Option_Bytes_Unlock
    n32g430_flash.o(i.FLASH_Option_Bytes_User2_RDP2_Program) refers to n32g430_flash.o(i.FLASH_Flag_Status_Clear) for FLASH_Flag_Status_Clear
    n32g430_flash.o(i.FLASH_Option_Bytes_User2_RDP2_Program) refers to n32g430_flash.o(i.FLASH_Last_Operation_Wait) for FLASH_Last_Operation_Wait
    n32g430_flash.o(i.FLASH_Option_Bytes_User_RDP1_Program) refers to n32g430_flash.o(i.FLASH_Read_Out_Protection_L2_Status_Get) for FLASH_Read_Out_Protection_L2_Status_Get
    n32g430_flash.o(i.FLASH_Option_Bytes_User_RDP1_Program) refers to n32g430_flash.o(i.Option_Bytes_Unlock) for Option_Bytes_Unlock
    n32g430_flash.o(i.FLASH_Option_Bytes_User_RDP1_Program) refers to n32g430_flash.o(i.FLASH_Flag_Status_Clear) for FLASH_Flag_Status_Clear
    n32g430_flash.o(i.FLASH_Option_Bytes_User_RDP1_Program) refers to n32g430_flash.o(i.FLASH_Last_Operation_Wait) for FLASH_Last_Operation_Wait
    n32g430_flash.o(i.FLASH_Read_Out_Protection_L1_Disable) refers to n32g430_flash.o(i.FLASH_Read_Out_Protection_L2_Status_Get) for FLASH_Read_Out_Protection_L2_Status_Get
    n32g430_flash.o(i.FLASH_Read_Out_Protection_L1_Disable) refers to n32g430_flash.o(i.FLASH_Flag_Status_Clear) for FLASH_Flag_Status_Clear
    n32g430_flash.o(i.FLASH_Read_Out_Protection_L1_Disable) refers to n32g430_flash.o(i.FLASH_Last_Operation_Wait) for FLASH_Last_Operation_Wait
    n32g430_flash.o(i.FLASH_Read_Out_Protection_L1_Disable) refers to n32g430_flash.o(i.Option_Bytes_Unlock) for Option_Bytes_Unlock
    n32g430_flash.o(i.FLASH_Read_Out_Protection_L1_Enable) refers to n32g430_flash.o(i.FLASH_Read_Out_Protection_L2_Status_Get) for FLASH_Read_Out_Protection_L2_Status_Get
    n32g430_flash.o(i.FLASH_Read_Out_Protection_L1_Enable) refers to n32g430_flash.o(i.FLASH_Flag_Status_Clear) for FLASH_Flag_Status_Clear
    n32g430_flash.o(i.FLASH_Read_Out_Protection_L1_Enable) refers to n32g430_flash.o(i.FLASH_Last_Operation_Wait) for FLASH_Last_Operation_Wait
    n32g430_flash.o(i.FLASH_Read_Out_Protection_L1_Enable) refers to n32g430_flash.o(i.Option_Bytes_Unlock) for Option_Bytes_Unlock
    n32g430_flash.o(i.FLASH_Read_Out_Protection_L2_Enable) refers to n32g430_flash.o(i.FLASH_Read_Out_Protection_Status_Get) for FLASH_Read_Out_Protection_Status_Get
    n32g430_flash.o(i.FLASH_Read_Out_Protection_L2_Enable) refers to n32g430_flash.o(i.FLASH_Read_Out_Protection_L2_Status_Get) for FLASH_Read_Out_Protection_L2_Status_Get
    n32g430_flash.o(i.FLASH_Read_Out_Protection_L2_Enable) refers to n32g430_flash.o(i.FLASH_Flag_Status_Clear) for FLASH_Flag_Status_Clear
    n32g430_flash.o(i.FLASH_Read_Out_Protection_L2_Enable) refers to n32g430_flash.o(i.FLASH_Last_Operation_Wait) for FLASH_Last_Operation_Wait
    n32g430_flash.o(i.FLASH_Read_Out_Protection_L2_Enable) refers to n32g430_flash.o(i.Option_Bytes_Unlock) for Option_Bytes_Unlock
    n32g430_flash.o(i.FLASH_Word_Program) refers to n32g430_flash.o(i.FLASH_Flag_Status_Clear) for FLASH_Flag_Status_Clear
    n32g430_flash.o(i.FLASH_Word_Program) refers to n32g430_flash.o(i.FLASH_Last_Operation_Wait) for FLASH_Last_Operation_Wait
    n32g430_flash.o(i.FLASH_Write_Protection_Enable) refers to n32g430_flash.o(i.FLASH_Read_Out_Protection_L2_Status_Get) for FLASH_Read_Out_Protection_L2_Status_Get
    n32g430_flash.o(i.FLASH_Write_Protection_Enable) refers to n32g430_flash.o(i.FLASH_Flag_Status_Clear) for FLASH_Flag_Status_Clear
    n32g430_flash.o(i.FLASH_Write_Protection_Enable) refers to n32g430_flash.o(i.FLASH_Last_Operation_Wait) for FLASH_Last_Operation_Wait
    n32g430_flash.o(i.FLASH_Write_Protection_Enable) refers to n32g430_flash.o(i.Option_Bytes_Unlock) for Option_Bytes_Unlock
    n32g430_gpio.o(i.GPIO_ALLPin_Reset) refers to n32g430_gpio.o(i.GPIOA_Pin_Reset) for GPIOA_Pin_Reset
    n32g430_gpio.o(i.GPIO_ALLPin_Reset) refers to n32g430_gpio.o(i.GPIOB_Pin_Reset) for GPIOB_Pin_Reset
    n32g430_gpio.o(i.GPIO_ALLPin_Reset) refers to n32g430_gpio.o(i.GPIOC_Pin_Reset) for GPIOC_Pin_Reset
    n32g430_gpio.o(i.GPIO_ALLPin_Reset) refers to n32g430_gpio.o(i.GPIOD_Pin_Reset) for GPIOD_Pin_Reset
    n32g430_gpio.o(i.GPIO_Alternate_Function_Reset) refers to n32g430_rcc.o(i.RCC_APB2_Peripheral_Reset) for RCC_APB2_Peripheral_Reset
    n32g430_gpio.o(i.GPIO_Peripheral_Initialize) refers to n32g430_gpio.o(i.GPIO_Alternate_Set) for GPIO_Alternate_Set
    n32g430_gpio.o(i.GPIO_Peripheral_Initialize) refers to n32g430_gpio.o(i.GPIO_Mode_Set) for GPIO_Mode_Set
    n32g430_gpio.o(i.GPIO_Peripheral_Initialize) refers to n32g430_gpio.o(i.GPIO_Pull_Set) for GPIO_Pull_Set
    n32g430_gpio.o(i.GPIO_Peripheral_Initialize) refers to n32g430_gpio.o(i.GPIO_SlewRate_Set) for GPIO_SlewRate_Set
    n32g430_gpio.o(i.GPIO_Peripheral_Initialize) refers to n32g430_gpio.o(i.GPIO_Driver_Set) for GPIO_Driver_Set
    n32g430_gpio.o(i.GPIO_Reset) refers to n32g430_rcc.o(i.RCC_AHB_Peripheral_Reset) for RCC_AHB_Peripheral_Reset
    n32g430_i2c.o(i.I2C_Clock_Speed_Config) refers to n32g430_rcc.o(i.RCC_Clocks_Frequencies_Value_Get) for RCC_Clocks_Frequencies_Value_Get
    n32g430_i2c.o(i.I2C_Initializes) refers to n32g430_i2c.o(i.I2C_Clock_Speed_Config) for I2C_Clock_Speed_Config
    n32g430_i2c.o(i.I2C_Initializes) refers to n32g430_i2c.o(i.I2C_Bus_Mode_Config) for I2C_Bus_Mode_Config
    n32g430_i2c.o(i.I2C_Initializes) refers to n32g430_i2c.o(i.I2C_Acknowledgement_Config) for I2C_Acknowledgement_Config
    n32g430_i2c.o(i.I2C_Initializes) refers to n32g430_i2c.o(i.I2C_Addressing_Mode_Config) for I2C_Addressing_Mode_Config
    n32g430_i2c.o(i.I2C_Initializes) refers to n32g430_i2c.o(i.I2C_Own_Addr1_Config) for I2C_Own_Addr1_Config
    n32g430_i2c.o(i.I2C_Reset) refers to n32g430_rcc.o(i.RCC_APB1_Peripheral_Reset) for RCC_APB1_Peripheral_Reset
    n32g430_lptim.o(i.LPTIM_Initializes) refers to n32g430_lptim.o(i.LPTIM_Clock_Source_Set) for LPTIM_Clock_Source_Set
    n32g430_lptim.o(i.LPTIM_Initializes) refers to n32g430_lptim.o(i.LPTIM_Prescaler_Set) for LPTIM_Prescaler_Set
    n32g430_lptim.o(i.LPTIM_Initializes) refers to n32g430_lptim.o(i.LPTIM_Waveform_Set) for LPTIM_Waveform_Set
    n32g430_lptim.o(i.LPTIM_Initializes) refers to n32g430_lptim.o(i.LPTIM_Polarity_Set) for LPTIM_Polarity_Set
    n32g430_lptim.o(i.LPTIM_Reset) refers to n32g430_rcc.o(i.RCC_LPTIM_Reset) for RCC_LPTIM_Reset
    n32g430_pwr.o(i.PWR_Reset) refers to n32g430_rcc.o(i.RCC_APB1_Peripheral_Reset) for RCC_APB1_Peripheral_Reset
    n32g430_rcc.o(i.RCC_Clocks_Frequencies_Value_Get) refers to n32g430_rcc.o(.constdata) for APBAHBPresTable
    n32g430_rcc.o(i.RCC_HSE_Stable_Wait) refers to n32g430_rcc.o(i.RCC_Clocks_Frequencies_Value_Get) for RCC_Clocks_Frequencies_Value_Get
    n32g430_rcc.o(i.RCC_HSE_Stable_Wait) refers to n32g430_rcc.o(i.RCC_Flag_Status_Get) for RCC_Flag_Status_Get
    n32g430_rcc.o(i.RCC_HSI_Stable_Wait) refers to n32g430_rcc.o(i.RCC_Clocks_Frequencies_Value_Get) for RCC_Clocks_Frequencies_Value_Get
    n32g430_rcc.o(i.RCC_HSI_Stable_Wait) refers to n32g430_rcc.o(i.RCC_Flag_Status_Get) for RCC_Flag_Status_Get
    n32g430_rcc.o(i.RCC_LPTIM_Clock_Config) refers to n32g430_rcc.o(i.RCC_APB1_Peripheral_Clock_Enable) for RCC_APB1_Peripheral_Clock_Enable
    n32g430_rcc.o(i.RCC_LSE_Config) refers to n32g430_rcc.o(i.RCC_APB1_Peripheral_Clock_Enable) for RCC_APB1_Peripheral_Clock_Enable
    n32g430_rcc.o(i.RCC_LSE_Config) refers to n32g430_rcc.o(i.RCC_LSE_Trim_Config) for RCC_LSE_Trim_Config
    n32g430_rcc.o(i.RCC_LSE_Stable_Wait) refers to n32g430_rcc.o(i.RCC_Clocks_Frequencies_Value_Get) for RCC_Clocks_Frequencies_Value_Get
    n32g430_rcc.o(i.RCC_LSE_Stable_Wait) refers to n32g430_rcc.o(i.RCC_Flag_Status_Get) for RCC_Flag_Status_Get
    n32g430_rcc.o(i.RCC_LSI_Stable_Wait) refers to n32g430_rcc.o(i.RCC_Clocks_Frequencies_Value_Get) for RCC_Clocks_Frequencies_Value_Get
    n32g430_rcc.o(i.RCC_LSI_Stable_Wait) refers to n32g430_rcc.o(i.RCC_Flag_Status_Get) for RCC_Flag_Status_Get
    n32g430_rtc.o(i.RTC_Alarm_Disable) refers to n32g430_rtc.o(i.RTC_Write_Protection_Disable) for RTC_Write_Protection_Disable
    n32g430_rtc.o(i.RTC_Alarm_Disable) refers to n32g430_rtc.o(i.RTC_Write_Protection_Enable) for RTC_Write_Protection_Enable
    n32g430_rtc.o(i.RTC_Alarm_Enable) refers to n32g430_rtc.o(i.RTC_Write_Protection_Disable) for RTC_Write_Protection_Disable
    n32g430_rtc.o(i.RTC_Alarm_Enable) refers to n32g430_rtc.o(i.RTC_Write_Protection_Enable) for RTC_Write_Protection_Enable
    n32g430_rtc.o(i.RTC_Alarm_Get) refers to n32g430_rtc.o(i.RTC_Bcd2_To_Byte) for RTC_Bcd2_To_Byte
    n32g430_rtc.o(i.RTC_Alarm_Set) refers to n32g430_rtc.o(i.RTC_Byte_To_Bcd2) for RTC_Byte_To_Bcd2
    n32g430_rtc.o(i.RTC_Alarm_Set) refers to n32g430_rtc.o(i.RTC_Write_Protection_Disable) for RTC_Write_Protection_Disable
    n32g430_rtc.o(i.RTC_Alarm_Set) refers to n32g430_rtc.o(i.RTC_Write_Protection_Enable) for RTC_Write_Protection_Enable
    n32g430_rtc.o(i.RTC_Alarm_SubSecond_Config) refers to n32g430_rtc.o(i.RTC_Write_Protection_Disable) for RTC_Write_Protection_Disable
    n32g430_rtc.o(i.RTC_Alarm_SubSecond_Config) refers to n32g430_rtc.o(i.RTC_Write_Protection_Enable) for RTC_Write_Protection_Enable
    n32g430_rtc.o(i.RTC_Bypass_Shadow_Disable) refers to n32g430_rtc.o(i.RTC_Write_Protection_Disable) for RTC_Write_Protection_Disable
    n32g430_rtc.o(i.RTC_Bypass_Shadow_Disable) refers to n32g430_rtc.o(i.RTC_Write_Protection_Enable) for RTC_Write_Protection_Enable
    n32g430_rtc.o(i.RTC_Bypass_Shadow_Enable) refers to n32g430_rtc.o(i.RTC_Write_Protection_Disable) for RTC_Write_Protection_Disable
    n32g430_rtc.o(i.RTC_Bypass_Shadow_Enable) refers to n32g430_rtc.o(i.RTC_Write_Protection_Enable) for RTC_Write_Protection_Enable
    n32g430_rtc.o(i.RTC_Calendar_Initializes) refers to n32g430_rtc.o(i.RTC_Byte_To_Bcd2) for RTC_Byte_To_Bcd2
    n32g430_rtc.o(i.RTC_Calendar_Initializes) refers to n32g430_rtc.o(i.RTC_Write_Protection_Disable) for RTC_Write_Protection_Disable
    n32g430_rtc.o(i.RTC_Calendar_Initializes) refers to n32g430_rtc.o(i.RTC_Initialization_Mode_Enter) for RTC_Initialization_Mode_Enter
    n32g430_rtc.o(i.RTC_Calendar_Initializes) refers to n32g430_rtc.o(i.RTC_Hour_Format_Set) for RTC_Hour_Format_Set
    n32g430_rtc.o(i.RTC_Calendar_Initializes) refers to n32g430_rtc.o(i.RTC_Prescale_Config) for RTC_Prescale_Config
    n32g430_rtc.o(i.RTC_Calendar_Initializes) refers to n32g430_rtc.o(i.RTC_Initialization_Mode_Exit) for RTC_Initialization_Mode_Exit
    n32g430_rtc.o(i.RTC_Calendar_Initializes) refers to n32g430_rtc.o(i.RTC_Wait_For_Synchronization) for RTC_Wait_For_Synchronization
    n32g430_rtc.o(i.RTC_Calendar_Initializes) refers to n32g430_rtc.o(i.RTC_Write_Protection_Enable) for RTC_Write_Protection_Enable
    n32g430_rtc.o(i.RTC_Calendar_Initializes) refers to n32g430_rtc.o(.data) for first_init_flag
    n32g430_rtc.o(i.RTC_Calendar_Initializes) refers to system_n32g430.o(.data) for SystemClockFrequency
    n32g430_rtc.o(i.RTC_Calibration_Output_Config) refers to n32g430_rtc.o(i.RTC_Write_Protection_Disable) for RTC_Write_Protection_Disable
    n32g430_rtc.o(i.RTC_Calibration_Output_Config) refers to n32g430_rtc.o(i.RTC_Write_Protection_Enable) for RTC_Write_Protection_Enable
    n32g430_rtc.o(i.RTC_Calibration_Output_Disable) refers to n32g430_rtc.o(i.RTC_Write_Protection_Disable) for RTC_Write_Protection_Disable
    n32g430_rtc.o(i.RTC_Calibration_Output_Disable) refers to n32g430_rtc.o(i.RTC_Write_Protection_Enable) for RTC_Write_Protection_Enable
    n32g430_rtc.o(i.RTC_Calibration_Output_Enable) refers to n32g430_rtc.o(i.RTC_Write_Protection_Disable) for RTC_Write_Protection_Disable
    n32g430_rtc.o(i.RTC_Calibration_Output_Enable) refers to n32g430_rtc.o(i.RTC_Write_Protection_Enable) for RTC_Write_Protection_Enable
    n32g430_rtc.o(i.RTC_Date_Get) refers to n32g430_rtc.o(i.RTC_Bcd2_To_Byte) for RTC_Bcd2_To_Byte
    n32g430_rtc.o(i.RTC_Day_Light_Saving_Config) refers to n32g430_rtc.o(i.RTC_Write_Protection_Disable) for RTC_Write_Protection_Disable
    n32g430_rtc.o(i.RTC_Day_Light_Saving_Config) refers to n32g430_rtc.o(i.RTC_Write_Protection_Enable) for RTC_Write_Protection_Enable
    n32g430_rtc.o(i.RTC_Deinitializes) refers to n32g430_rtc.o(i.RTC_Write_Protection_Disable) for RTC_Write_Protection_Disable
    n32g430_rtc.o(i.RTC_Deinitializes) refers to n32g430_rtc.o(i.RTC_Initialization_Mode_Enter) for RTC_Initialization_Mode_Enter
    n32g430_rtc.o(i.RTC_Deinitializes) refers to n32g430_rtc.o(i.RTC_Registers_Reset) for RTC_Registers_Reset
    n32g430_rtc.o(i.RTC_Deinitializes) refers to n32g430_rtc.o(i.RTC_Wait_For_Synchronization) for RTC_Wait_For_Synchronization
    n32g430_rtc.o(i.RTC_Deinitializes) refers to n32g430_rtc.o(i.RTC_Write_Protection_Enable) for RTC_Write_Protection_Enable
    n32g430_rtc.o(i.RTC_Interrupts_Disable) refers to n32g430_rtc.o(i.RTC_Write_Protection_Disable) for RTC_Write_Protection_Disable
    n32g430_rtc.o(i.RTC_Interrupts_Disable) refers to n32g430_rtc.o(i.RTC_Write_Protection_Enable) for RTC_Write_Protection_Enable
    n32g430_rtc.o(i.RTC_Interrupts_Enable) refers to n32g430_rtc.o(i.RTC_Write_Protection_Disable) for RTC_Write_Protection_Disable
    n32g430_rtc.o(i.RTC_Interrupts_Enable) refers to n32g430_rtc.o(i.RTC_Write_Protection_Enable) for RTC_Write_Protection_Enable
    n32g430_rtc.o(i.RTC_Output_Config) refers to n32g430_rtc.o(i.RTC_Write_Protection_Disable) for RTC_Write_Protection_Disable
    n32g430_rtc.o(i.RTC_Output_Config) refers to n32g430_rtc.o(i.RTC_Write_Protection_Enable) for RTC_Write_Protection_Enable
    n32g430_rtc.o(i.RTC_Reference_Clock_Disable) refers to n32g430_rtc.o(i.RTC_Write_Protection_Disable) for RTC_Write_Protection_Disable
    n32g430_rtc.o(i.RTC_Reference_Clock_Disable) refers to n32g430_rtc.o(i.RTC_Initialization_Mode_Enter) for RTC_Initialization_Mode_Enter
    n32g430_rtc.o(i.RTC_Reference_Clock_Disable) refers to n32g430_rtc.o(i.RTC_Initialization_Mode_Exit) for RTC_Initialization_Mode_Exit
    n32g430_rtc.o(i.RTC_Reference_Clock_Disable) refers to n32g430_rtc.o(i.RTC_Write_Protection_Enable) for RTC_Write_Protection_Enable
    n32g430_rtc.o(i.RTC_Reference_Clock_Enable) refers to n32g430_rtc.o(i.RTC_Write_Protection_Disable) for RTC_Write_Protection_Disable
    n32g430_rtc.o(i.RTC_Reference_Clock_Enable) refers to n32g430_rtc.o(i.RTC_Initialization_Mode_Enter) for RTC_Initialization_Mode_Enter
    n32g430_rtc.o(i.RTC_Reference_Clock_Enable) refers to n32g430_rtc.o(i.RTC_Initialization_Mode_Exit) for RTC_Initialization_Mode_Exit
    n32g430_rtc.o(i.RTC_Reference_Clock_Enable) refers to n32g430_rtc.o(i.RTC_Write_Protection_Enable) for RTC_Write_Protection_Enable
    n32g430_rtc.o(i.RTC_Smooth_Calibration_Config) refers to n32g430_rtc.o(i.RTC_Write_Protection_Disable) for RTC_Write_Protection_Disable
    n32g430_rtc.o(i.RTC_Smooth_Calibration_Config) refers to n32g430_rtc.o(i.RTC_Write_Protection_Enable) for RTC_Write_Protection_Enable
    n32g430_rtc.o(i.RTC_Synchronization_Shift_Config) refers to n32g430_rtc.o(i.RTC_Write_Protection_Disable) for RTC_Write_Protection_Disable
    n32g430_rtc.o(i.RTC_Synchronization_Shift_Config) refers to n32g430_rtc.o(i.RTC_Wait_For_Synchronization) for RTC_Wait_For_Synchronization
    n32g430_rtc.o(i.RTC_Synchronization_Shift_Config) refers to n32g430_rtc.o(i.RTC_Write_Protection_Enable) for RTC_Write_Protection_Enable
    n32g430_rtc.o(i.RTC_TimeStamp_Disable) refers to n32g430_rtc.o(i.RTC_Write_Protection_Disable) for RTC_Write_Protection_Disable
    n32g430_rtc.o(i.RTC_TimeStamp_Disable) refers to n32g430_rtc.o(i.RTC_Write_Protection_Enable) for RTC_Write_Protection_Enable
    n32g430_rtc.o(i.RTC_TimeStamp_Enable) refers to n32g430_rtc.o(i.RTC_Write_Protection_Disable) for RTC_Write_Protection_Disable
    n32g430_rtc.o(i.RTC_TimeStamp_Enable) refers to n32g430_rtc.o(i.RTC_Write_Protection_Enable) for RTC_Write_Protection_Enable
    n32g430_rtc.o(i.RTC_TimeStamp_Get) refers to n32g430_rtc.o(i.RTC_Bcd2_To_Byte) for RTC_Bcd2_To_Byte
    n32g430_rtc.o(i.RTC_Time_Get) refers to n32g430_rtc.o(i.RTC_Bcd2_To_Byte) for RTC_Bcd2_To_Byte
    n32g430_rtc.o(i.RTC_Wait_For_Synchronization) refers to n32g430_rtc.o(i.RTC_Write_Protection_Disable) for RTC_Write_Protection_Disable
    n32g430_rtc.o(i.RTC_Wait_For_Synchronization) refers to n32g430_rtc.o(i.RTC_Write_Protection_Enable) for RTC_Write_Protection_Enable
    n32g430_rtc.o(i.RTC_WakeUp_Clock_Select) refers to n32g430_rtc.o(i.RTC_Write_Protection_Disable) for RTC_Write_Protection_Disable
    n32g430_rtc.o(i.RTC_WakeUp_Clock_Select) refers to n32g430_rtc.o(i.RTC_Write_Protection_Enable) for RTC_Write_Protection_Enable
    n32g430_rtc.o(i.RTC_WakeUp_Counter_Set) refers to n32g430_rtc.o(i.RTC_Write_Protection_Disable) for RTC_Write_Protection_Disable
    n32g430_rtc.o(i.RTC_WakeUp_Counter_Set) refers to n32g430_rtc.o(i.RTC_Write_Protection_Enable) for RTC_Write_Protection_Enable
    n32g430_rtc.o(i.RTC_WakeUp_Disable) refers to n32g430_rtc.o(i.RTC_Write_Protection_Disable) for RTC_Write_Protection_Disable
    n32g430_rtc.o(i.RTC_WakeUp_Disable) refers to n32g430_rtc.o(i.RTC_Write_Protection_Enable) for RTC_Write_Protection_Enable
    n32g430_rtc.o(i.RTC_WakeUp_Enable) refers to n32g430_rtc.o(i.RTC_Write_Protection_Disable) for RTC_Write_Protection_Disable
    n32g430_rtc.o(i.RTC_WakeUp_Enable) refers to n32g430_rtc.o(i.RTC_Write_Protection_Enable) for RTC_Write_Protection_Enable
    n32g430_spi.o(i.I2S_AudioFrequency_Config) refers to n32g430_rcc.o(i.RCC_Clocks_Frequencies_Value_Get) for RCC_Clocks_Frequencies_Value_Get
    n32g430_spi.o(i.I2S_Initializes) refers to n32g430_spi.o(i.I2S_Mode_Config) for I2S_Mode_Config
    n32g430_spi.o(i.I2S_Initializes) refers to n32g430_spi.o(i.I2S_Standard_Config) for I2S_Standard_Config
    n32g430_spi.o(i.I2S_Initializes) refers to n32g430_spi.o(i.I2S_DataFormat_Config) for I2S_DataFormat_Config
    n32g430_spi.o(i.I2S_Initializes) refers to n32g430_spi.o(i.I2S_MCLK_Enable) for I2S_MCLK_Enable
    n32g430_spi.o(i.I2S_Initializes) refers to n32g430_spi.o(i.I2S_MCLK_Disable) for I2S_MCLK_Disable
    n32g430_spi.o(i.I2S_Initializes) refers to n32g430_spi.o(i.I2S_AudioFrequency_Config) for I2S_AudioFrequency_Config
    n32g430_spi.o(i.I2S_Initializes) refers to n32g430_spi.o(i.I2S_CLKPOL_Config) for I2S_CLKPOL_Config
    n32g430_spi.o(i.SPI_I2S_Reset) refers to n32g430_rcc.o(i.RCC_APB2_Peripheral_Reset) for RCC_APB2_Peripheral_Reset
    n32g430_spi.o(i.SPI_Initializes) refers to n32g430_spi.o(i.SPI_DataDirection_Config) for SPI_DataDirection_Config
    n32g430_spi.o(i.SPI_Initializes) refers to n32g430_spi.o(i.SPI_SpiMode_Config) for SPI_SpiMode_Config
    n32g430_spi.o(i.SPI_Initializes) refers to n32g430_spi.o(i.SPI_DataLen_Config) for SPI_DataLen_Config
    n32g430_spi.o(i.SPI_Initializes) refers to n32g430_spi.o(i.SPI_CLKPHA_Config) for SPI_CLKPHA_Config
    n32g430_spi.o(i.SPI_Initializes) refers to n32g430_spi.o(i.SPI_CLKPOL_Config) for SPI_CLKPOL_Config
    n32g430_spi.o(i.SPI_Initializes) refers to n32g430_spi.o(i.SPI_NSS_Config) for SPI_NSS_Config
    n32g430_spi.o(i.SPI_Initializes) refers to n32g430_spi.o(i.SPI_BaudRatePres_Config) for SPI_BaudRatePres_Config
    n32g430_spi.o(i.SPI_Initializes) refers to n32g430_spi.o(i.SPI_FirstBit_Config) for SPI_FirstBit_Config
    n32g430_spi.o(i.SPI_Initializes) refers to n32g430_spi.o(i.SPI_CRC_Polynomial_Set) for SPI_CRC_Polynomial_Set
    n32g430_tim.o(i.TIM_Base_Initialize) refers to n32g430_tim.o(i.TIM_Base_Count_Mode_Set) for TIM_Base_Count_Mode_Set
    n32g430_tim.o(i.TIM_Base_Initialize) refers to n32g430_tim.o(i.TIM_Clock_Division_Set) for TIM_Clock_Division_Set
    n32g430_tim.o(i.TIM_Base_Initialize) refers to n32g430_tim.o(i.TIM_Base_Auto_Reload_Set) for TIM_Base_Auto_Reload_Set
    n32g430_tim.o(i.TIM_Base_Initialize) refers to n32g430_tim.o(i.TIM_Base_Prescaler_Set) for TIM_Base_Prescaler_Set
    n32g430_tim.o(i.TIM_Base_Initialize) refers to n32g430_tim.o(i.TIM_Base_Repeat_Count_Set) for TIM_Base_Repeat_Count_Set
    n32g430_tim.o(i.TIM_Base_Initialize) refers to n32g430_tim.o(i.TIM_Base_Reload_Mode_Set) for TIM_Base_Reload_Mode_Set
    n32g430_tim.o(i.TIM_Base_Initialize) refers to n32g430_tim.o(i.TIM_Base_Channel1) for TIM_Base_Channel1
    n32g430_tim.o(i.TIM_Base_Initialize) refers to n32g430_tim.o(i.TIM_Base_OCrefClear) for TIM_Base_OCrefClear
    n32g430_tim.o(i.TIM_Base_Initialize) refers to n32g430_tim.o(i.TIM_Base_Channel2) for TIM_Base_Channel2
    n32g430_tim.o(i.TIM_Base_Initialize) refers to n32g430_tim.o(i.TIM_Base_Channel3) for TIM_Base_Channel3
    n32g430_tim.o(i.TIM_Base_Initialize) refers to n32g430_tim.o(i.TIM_Base_Channel4) for TIM_Base_Channel4
    n32g430_tim.o(i.TIM_Break_And_Dead_Time_Set) refers to n32g430_tim.o(i.TIM_IOM_Comp_Break) for TIM_IOM_Comp_Break
    n32g430_tim.o(i.TIM_Break_And_Dead_Time_Set) refers to n32g430_tim.o(i.TIM_Lock_Up_Break_Enable) for TIM_Lock_Up_Break_Enable
    n32g430_tim.o(i.TIM_Break_And_Dead_Time_Set) refers to n32g430_tim.o(i.TIM_Lock_Up_Break_Disable) for TIM_Lock_Up_Break_Disable
    n32g430_tim.o(i.TIM_Break_And_Dead_Time_Set) refers to n32g430_tim.o(i.TIM_Pvd_Break_Enable) for TIM_Pvd_Break_Enable
    n32g430_tim.o(i.TIM_Break_And_Dead_Time_Set) refers to n32g430_tim.o(i.TIM_Pvd_Break_Disable) for TIM_Pvd_Break_Disable
    n32g430_tim.o(i.TIM_External_Clock_Mode1_Set) refers to n32g430_tim.o(i.TIM_External_Trigger_Filter_Set) for TIM_External_Trigger_Filter_Set
    n32g430_tim.o(i.TIM_External_Clock_Mode1_Set) refers to n32g430_tim.o(i.TIM_External_Trigger_Polarity_Set) for TIM_External_Trigger_Polarity_Set
    n32g430_tim.o(i.TIM_External_Clock_Mode1_Set) refers to n32g430_tim.o(i.TIM_External_Trigger_Prescaler_Set) for TIM_External_Trigger_Prescaler_Set
    n32g430_tim.o(i.TIM_External_Clock_Mode2_Set) refers to n32g430_tim.o(i.TIM_External_Trigger_Filter_Set) for TIM_External_Trigger_Filter_Set
    n32g430_tim.o(i.TIM_External_Clock_Mode2_Set) refers to n32g430_tim.o(i.TIM_External_Trigger_Polarity_Set) for TIM_External_Trigger_Polarity_Set
    n32g430_tim.o(i.TIM_External_Clock_Mode2_Set) refers to n32g430_tim.o(i.TIM_External_Trigger_Prescaler_Set) for TIM_External_Trigger_Prescaler_Set
    n32g430_tim.o(i.TIM_Input_Channel_Initialize) refers to n32g430_tim.o(i.Input_Channel1_Config) for Input_Channel1_Config
    n32g430_tim.o(i.TIM_Input_Channel_Initialize) refers to n32g430_tim.o(i.TIM_Input_Capture1_Prescaler_Set) for TIM_Input_Capture1_Prescaler_Set
    n32g430_tim.o(i.TIM_Input_Channel_Initialize) refers to n32g430_tim.o(i.Input_Channel2_Config) for Input_Channel2_Config
    n32g430_tim.o(i.TIM_Input_Channel_Initialize) refers to n32g430_tim.o(i.TIM_Input_Capture2_Prescaler_Set) for TIM_Input_Capture2_Prescaler_Set
    n32g430_tim.o(i.TIM_Input_Channel_Initialize) refers to n32g430_tim.o(i.Input_Channel3_Config) for Input_Channel3_Config
    n32g430_tim.o(i.TIM_Input_Channel_Initialize) refers to n32g430_tim.o(i.TIM_Input_Capture3_Prescaler_Set) for TIM_Input_Capture3_Prescaler_Set
    n32g430_tim.o(i.TIM_Input_Channel_Initialize) refers to n32g430_tim.o(i.Input_Channel4_Config) for Input_Channel4_Config
    n32g430_tim.o(i.TIM_Input_Channel_Initialize) refers to n32g430_tim.o(i.TIM_Input_Capture4_Prescaler_Set) for TIM_Input_Capture4_Prescaler_Set
    n32g430_tim.o(i.TIM_Internal_Trig_To_Ext_Set) refers to n32g430_tim.o(i.TIM_Trigger_Source_Select) for TIM_Trigger_Source_Select
    n32g430_tim.o(i.TIM_Output_Channel1_Initialize) refers to n32g430_tim.o(i.TIM_Capture_Compare_Ch_Disable) for TIM_Capture_Compare_Ch_Disable
    n32g430_tim.o(i.TIM_Output_Channel1_Initialize) refers to n32g430_tim.o(i.TIM_Output_Channel_Polarity_Set) for TIM_Output_Channel_Polarity_Set
    n32g430_tim.o(i.TIM_Output_Channel1_Initialize) refers to n32g430_tim.o(i.TIM_Capture_Compare_Ch_Enable) for TIM_Capture_Compare_Ch_Enable
    n32g430_tim.o(i.TIM_Output_Channel1_Initialize) refers to n32g430_tim.o(i.TIM_Output_Channel_N_Polarity_Set) for TIM_Output_Channel_N_Polarity_Set
    n32g430_tim.o(i.TIM_Output_Channel1_Initialize) refers to n32g430_tim.o(i.TIM_Capture_Compare_Ch_N_Enable) for TIM_Capture_Compare_Ch_N_Enable
    n32g430_tim.o(i.TIM_Output_Channel1_Initialize) refers to n32g430_tim.o(i.TIM_Capture_Compare_Ch_N_Disable) for TIM_Capture_Compare_Ch_N_Disable
    n32g430_tim.o(i.TIM_Output_Channel2_Initialize) refers to n32g430_tim.o(i.TIM_Capture_Compare_Ch_Disable) for TIM_Capture_Compare_Ch_Disable
    n32g430_tim.o(i.TIM_Output_Channel2_Initialize) refers to n32g430_tim.o(i.TIM_Output_Channel_Polarity_Set) for TIM_Output_Channel_Polarity_Set
    n32g430_tim.o(i.TIM_Output_Channel2_Initialize) refers to n32g430_tim.o(i.TIM_Capture_Compare_Ch_Enable) for TIM_Capture_Compare_Ch_Enable
    n32g430_tim.o(i.TIM_Output_Channel2_Initialize) refers to n32g430_tim.o(i.TIM_Output_Channel_N_Polarity_Set) for TIM_Output_Channel_N_Polarity_Set
    n32g430_tim.o(i.TIM_Output_Channel2_Initialize) refers to n32g430_tim.o(i.TIM_Capture_Compare_Ch_N_Enable) for TIM_Capture_Compare_Ch_N_Enable
    n32g430_tim.o(i.TIM_Output_Channel2_Initialize) refers to n32g430_tim.o(i.TIM_Capture_Compare_Ch_N_Disable) for TIM_Capture_Compare_Ch_N_Disable
    n32g430_tim.o(i.TIM_Output_Channel3_Initialize) refers to n32g430_tim.o(i.TIM_Capture_Compare_Ch_Disable) for TIM_Capture_Compare_Ch_Disable
    n32g430_tim.o(i.TIM_Output_Channel3_Initialize) refers to n32g430_tim.o(i.TIM_Output_Channel_Polarity_Set) for TIM_Output_Channel_Polarity_Set
    n32g430_tim.o(i.TIM_Output_Channel3_Initialize) refers to n32g430_tim.o(i.TIM_Capture_Compare_Ch_Enable) for TIM_Capture_Compare_Ch_Enable
    n32g430_tim.o(i.TIM_Output_Channel3_Initialize) refers to n32g430_tim.o(i.TIM_Output_Channel_N_Polarity_Set) for TIM_Output_Channel_N_Polarity_Set
    n32g430_tim.o(i.TIM_Output_Channel3_Initialize) refers to n32g430_tim.o(i.TIM_Capture_Compare_Ch_N_Enable) for TIM_Capture_Compare_Ch_N_Enable
    n32g430_tim.o(i.TIM_Output_Channel3_Initialize) refers to n32g430_tim.o(i.TIM_Capture_Compare_Ch_N_Disable) for TIM_Capture_Compare_Ch_N_Disable
    n32g430_tim.o(i.TIM_Output_Channel4_Initialize) refers to n32g430_tim.o(i.TIM_Capture_Compare_Ch_Disable) for TIM_Capture_Compare_Ch_Disable
    n32g430_tim.o(i.TIM_Output_Channel4_Initialize) refers to n32g430_tim.o(i.TIM_Output_Channel_Polarity_Set) for TIM_Output_Channel_Polarity_Set
    n32g430_tim.o(i.TIM_Output_Channel4_Initialize) refers to n32g430_tim.o(i.TIM_Capture_Compare_Ch_Enable) for TIM_Capture_Compare_Ch_Enable
    n32g430_tim.o(i.TIM_Output_Channel4_Initialize) refers to n32g430_tim.o(i.TIM_Output_Channel_N_Polarity_Set) for TIM_Output_Channel_N_Polarity_Set
    n32g430_tim.o(i.TIM_Output_Channel4_Initialize) refers to n32g430_tim.o(i.TIM_Capture_Compare_Ch_N_Enable) for TIM_Capture_Compare_Ch_N_Enable
    n32g430_tim.o(i.TIM_Output_Channel4_Initialize) refers to n32g430_tim.o(i.TIM_Capture_Compare_Ch_N_Disable) for TIM_Capture_Compare_Ch_N_Disable
    n32g430_tim.o(i.TIM_Output_Channel5_Initialize) refers to n32g430_tim.o(i.TIM_Capture_Compare_Ch_Disable) for TIM_Capture_Compare_Ch_Disable
    n32g430_tim.o(i.TIM_Output_Channel5_Initialize) refers to n32g430_tim.o(i.TIM_Output_Channel_Polarity_Set) for TIM_Output_Channel_Polarity_Set
    n32g430_tim.o(i.TIM_Output_Channel5_Initialize) refers to n32g430_tim.o(i.TIM_Capture_Compare_Ch_Enable) for TIM_Capture_Compare_Ch_Enable
    n32g430_tim.o(i.TIM_Output_Channel6_Initialize) refers to n32g430_tim.o(i.TIM_Capture_Compare_Ch_Disable) for TIM_Capture_Compare_Ch_Disable
    n32g430_tim.o(i.TIM_Output_Channel6_Initialize) refers to n32g430_tim.o(i.TIM_Output_Channel_Polarity_Set) for TIM_Output_Channel_Polarity_Set
    n32g430_tim.o(i.TIM_Output_Channel6_Initialize) refers to n32g430_tim.o(i.TIM_Capture_Compare_Ch_Enable) for TIM_Capture_Compare_Ch_Enable
    n32g430_tim.o(i.TIM_PWM_Input_Channel_Config) refers to n32g430_tim.o(i.Input_Channel1_Config) for Input_Channel1_Config
    n32g430_tim.o(i.TIM_PWM_Input_Channel_Config) refers to n32g430_tim.o(i.TIM_Input_Capture1_Prescaler_Set) for TIM_Input_Capture1_Prescaler_Set
    n32g430_tim.o(i.TIM_PWM_Input_Channel_Config) refers to n32g430_tim.o(i.Input_Channel2_Config) for Input_Channel2_Config
    n32g430_tim.o(i.TIM_PWM_Input_Channel_Config) refers to n32g430_tim.o(i.TIM_Input_Capture2_Prescaler_Set) for TIM_Input_Capture2_Prescaler_Set
    n32g430_tim.o(i.TIM_Reset) refers to n32g430_rcc.o(i.RCC_APB2_Peripheral_Reset) for RCC_APB2_Peripheral_Reset
    n32g430_tim.o(i.TIM_Reset) refers to n32g430_rcc.o(i.RCC_APB1_Peripheral_Reset) for RCC_APB1_Peripheral_Reset
    n32g430_tim.o(i.TIM_Trigger_As_External_Clock) refers to n32g430_tim.o(i.Input_Channel2_Config) for Input_Channel2_Config
    n32g430_tim.o(i.TIM_Trigger_As_External_Clock) refers to n32g430_tim.o(i.Input_Channel1_Config) for Input_Channel1_Config
    n32g430_tim.o(i.TIM_Trigger_As_External_Clock) refers to n32g430_tim.o(i.TIM_Trigger_Source_Select) for TIM_Trigger_Source_Select
    n32g430_usart.o(i.USART_Baud_Rate_Config) refers to n32g430_rcc.o(i.RCC_Clocks_Frequencies_Value_Get) for RCC_Clocks_Frequencies_Value_Get
    n32g430_usart.o(i.USART_Clock_Initializes) refers to n32g430_usart.o(i.USART_Clock_Config) for USART_Clock_Config
    n32g430_usart.o(i.USART_Clock_Initializes) refers to n32g430_usart.o(i.USART_Polarity_Config) for USART_Polarity_Config
    n32g430_usart.o(i.USART_Clock_Initializes) refers to n32g430_usart.o(i.USART_Phase_Config) for USART_Phase_Config
    n32g430_usart.o(i.USART_Clock_Initializes) refers to n32g430_usart.o(i.USART_Last_Bit_Config) for USART_Last_Bit_Config
    n32g430_usart.o(i.USART_Initializes) refers to n32g430_usart.o(i.USART_Baud_Rate_Config) for USART_Baud_Rate_Config
    n32g430_usart.o(i.USART_Initializes) refers to n32g430_usart.o(i.USART_Word_Length_Config) for USART_Word_Length_Config
    n32g430_usart.o(i.USART_Initializes) refers to n32g430_usart.o(i.USART_Stop_Bits_Config) for USART_Stop_Bits_Config
    n32g430_usart.o(i.USART_Initializes) refers to n32g430_usart.o(i.USART_Parity_Config) for USART_Parity_Config
    n32g430_usart.o(i.USART_Initializes) refers to n32g430_usart.o(i.USART_Mode_Config) for USART_Mode_Config
    n32g430_usart.o(i.USART_Initializes) refers to n32g430_usart.o(i.USART_Hardware_Flow_Control_Config) for USART_Hardware_Flow_Control_Config
    n32g430_usart.o(i.USART_Reset) refers to n32g430_rcc.o(i.RCC_APB2_Peripheral_Reset) for RCC_APB2_Peripheral_Reset
    n32g430_usart.o(i.USART_Reset) refers to n32g430_rcc.o(i.RCC_APB1_Peripheral_Reset) for RCC_APB1_Peripheral_Reset
    n32g430_wwdg.o(i.WWDG_Reset) refers to n32g430_rcc.o(i.RCC_APB1_Peripheral_Reset) for RCC_APB1_Peripheral_Reset
    system_n32g430.o(i.System_Clock_Frequency_Update) refers to system_n32g430.o(.data) for SystemClockFrequency
    system_n32g430.o(i.System_Clock_Frequency_Update) refers to system_n32g430.o(.constdata) for AHBPrescTable
    system_n32g430.o(i.System_Clock_Set) refers to system_n32g430.o(.data) for SystemClockFrequency
    system_n32g430.o(i.System_Initializes) refers to system_n32g430.o(i.System_Clock_Set) for System_Clock_Set
    main.o(i.TIM6_IRQHandler) refers to n32g430_tim.o(i.TIM_Interrupt_Status_Get) for TIM_Interrupt_Status_Get
    main.o(i.TIM6_IRQHandler) refers to n32g430_tim.o(i.TIM_Interrupt_Status_Clear) for TIM_Interrupt_Status_Clear
    main.o(i.TIM6_IRQHandler) refers to key.o(i.KEY_Scan) for KEY_Scan
    main.o(i.TIM6_IRQHandler) refers to menu.o(i.Menu_Task) for Menu_Task
    main.o(i.TIM6_IRQHandler) refers to main.o(.data) for cnt
    main.o(i.Tim6_Init) refers to n32g430_rcc.o(i.RCC_APB1_Peripheral_Clock_Enable) for RCC_APB1_Peripheral_Clock_Enable
    main.o(i.Tim6_Init) refers to misc.o(i.NVIC_Initializes) for NVIC_Initializes
    main.o(i.Tim6_Init) refers to n32g430_tim.o(i.TIM_Base_Struct_Initialize) for TIM_Base_Struct_Initialize
    main.o(i.Tim6_Init) refers to n32g430_tim.o(i.TIM_Base_Initialize) for TIM_Base_Initialize
    main.o(i.Tim6_Init) refers to n32g430_tim.o(i.TIM_Base_Reload_Mode_Set) for TIM_Base_Reload_Mode_Set
    main.o(i.Tim6_Init) refers to n32g430_tim.o(i.TIM_Interrupt_Enable) for TIM_Interrupt_Enable
    main.o(i.Tim6_Init) refers to n32g430_tim.o(i.TIM_On) for TIM_On
    main.o(i.main) refers to sysclk.o(i.Set_SysClock_To_PLL128MHz) for Set_SysClock_To_PLL128MHz
    main.o(i.main) refers to adc.o(i.ADC_Configuration) for ADC_Configuration
    main.o(i.main) refers to lcd_init.o(i.LCD_Init) for LCD_Init
    main.o(i.main) refers to key.o(i.KEY_Init) for KEY_Init
    main.o(i.main) refers to ui.o(i.Key_Start_Task) for Key_Start_Task
    main.o(i.main) refers to i2c.o(i.FS2711_GPIO_Init) for FS2711_GPIO_Init
    main.o(i.main) refers to fs2711.o(i.FS2711_Enable_Protocol) for FS2711_Enable_Protocol
    main.o(i.main) refers to flash.o(i.Flash_Read) for Flash_Read
    main.o(i.main) refers to menu.o(i.Menu_Init) for Menu_Init
    main.o(i.main) refers to decoy.o(i.Init_FS2711) for Init_FS2711
    main.o(i.main) refers to main.o(i.Tim6_Init) for Tim6_Init
    main.o(i.main) refers to ui.o(i.UI_Main_Load) for UI_Main_Load
    main.o(i.main) refers to ui.o(i.UI_Main_Task) for UI_Main_Task
    lcd.o(i.Draw_Circle) refers to lcd.o(i.LCD_DrawPoint) for LCD_DrawPoint
    lcd.o(i.LCD_DrawLine) refers to lcd.o(i.LCD_DrawPoint) for LCD_DrawPoint
    lcd.o(i.LCD_DrawPoint) refers to lcd_init.o(i.LCD_Address_Set) for LCD_Address_Set
    lcd.o(i.LCD_DrawPoint) refers to lcd_init.o(i.LCD_WR_DATA) for LCD_WR_DATA
    lcd.o(i.LCD_DrawRectangle) refers to lcd.o(i.LCD_DrawLine) for LCD_DrawLine
    lcd.o(i.LCD_Fill) refers to lcd_init.o(i.LCD_Address_Set) for LCD_Address_Set
    lcd.o(i.LCD_Fill) refers to lcd_init.o(i.LCD_WR_DATA) for LCD_WR_DATA
    lcd.o(i.LCD_Roll) refers to lcd_init.o(i.LCD_WR_REG) for LCD_WR_REG
    lcd.o(i.LCD_Roll) refers to lcd_init.o(i.LCD_WR_DATA8) for LCD_WR_DATA8
    lcd.o(i.LCD_Roll) refers to lcd.o(i.LCD_Fill) for LCD_Fill
    lcd.o(i.LCD_ShowChar) refers to lcd_init.o(i.LCD_Address_Set) for LCD_Address_Set
    lcd.o(i.LCD_ShowChar) refers to lcd_init.o(i.LCD_WR_DATA) for LCD_WR_DATA
    lcd.o(i.LCD_ShowChar) refers to lcd.o(i.LCD_DrawPoint) for LCD_DrawPoint
    lcd.o(i.LCD_ShowChar) refers to lcd.o(.constdata) for ascii_1206
    lcd.o(i.LCD_ShowFloatNum1) refers to lcd.o(i.mypow) for mypow
    lcd.o(i.LCD_ShowFloatNum1) refers to lcd.o(i.LCD_ShowChar) for LCD_ShowChar
    lcd.o(i.LCD_ShowIntNum) refers to lcd.o(i.mypow) for mypow
    lcd.o(i.LCD_ShowIntNum) refers to lcd.o(i.LCD_ShowChar) for LCD_ShowChar
    lcd.o(i.LCD_ShowPicture) refers to lcd_init.o(i.LCD_Address_Set) for LCD_Address_Set
    lcd.o(i.LCD_ShowPicture) refers to lcd_init.o(i.LCD_WR_DATA8) for LCD_WR_DATA8
    lcd.o(i.LCD_ShowString) refers to lcd.o(i.LCD_ShowChar) for LCD_ShowChar
    lcd_init.o(i.LCD_Address_Set) refers to lcd_init.o(i.LCD_WR_REG) for LCD_WR_REG
    lcd_init.o(i.LCD_Address_Set) refers to lcd_init.o(i.LCD_WR_DATA) for LCD_WR_DATA
    lcd_init.o(i.LCD_GPIO_Init) refers to n32g430_rcc.o(i.RCC_AHB_Peripheral_Clock_Enable) for RCC_AHB_Peripheral_Clock_Enable
    lcd_init.o(i.LCD_GPIO_Init) refers to n32g430_gpio.o(i.GPIO_Structure_Initialize) for GPIO_Structure_Initialize
    lcd_init.o(i.LCD_GPIO_Init) refers to n32g430_gpio.o(i.GPIO_Peripheral_Initialize) for GPIO_Peripheral_Initialize
    lcd_init.o(i.LCD_GPIO_Init) refers to n32g430_gpio.o(i.GPIO_Pins_Set) for GPIO_Pins_Set
    lcd_init.o(i.LCD_Init) refers to lcd_init.o(i.LCD_GPIO_Init) for LCD_GPIO_Init
    lcd_init.o(i.LCD_Init) refers to spi.o(i.SPI_GPIO_Init) for SPI_GPIO_Init
    lcd_init.o(i.LCD_Init) refers to spi.o(i.SPI_TFT_Init) for SPI_TFT_Init
    lcd_init.o(i.LCD_Init) refers to n32g430_gpio.o(i.GPIO_Pins_Reset) for GPIO_Pins_Reset
    lcd_init.o(i.LCD_Init) refers to bsp_delay.o(i.SysTick_Delay_Ms) for SysTick_Delay_Ms
    lcd_init.o(i.LCD_Init) refers to n32g430_gpio.o(i.GPIO_Pins_Set) for GPIO_Pins_Set
    lcd_init.o(i.LCD_Init) refers to lcd_init.o(i.LCD_WR_REG) for LCD_WR_REG
    lcd_init.o(i.LCD_Init) refers to lcd_init.o(i.LCD_WR_DATA8) for LCD_WR_DATA8
    lcd_init.o(i.LCD_WR_DATA) refers to spi.o(i.SPI_Send_Data16) for SPI_Send_Data16
    lcd_init.o(i.LCD_WR_DATA8) refers to lcd_init.o(i.LCD_Writ_Bus) for LCD_Writ_Bus
    lcd_init.o(i.LCD_WR_REG) refers to n32g430_gpio.o(i.GPIO_Pins_Reset) for GPIO_Pins_Reset
    lcd_init.o(i.LCD_WR_REG) refers to lcd_init.o(i.LCD_Writ_Bus) for LCD_Writ_Bus
    lcd_init.o(i.LCD_WR_REG) refers to n32g430_gpio.o(i.GPIO_Pins_Set) for GPIO_Pins_Set
    lcd_init.o(i.LCD_Writ_Bus) refers to spi.o(i.SPI_Send_Data8) for SPI_Send_Data8
    adc.o(i.ADC_CLK_Init) refers to n32g430_rcc.o(i.RCC_AHB_Peripheral_Clock_Enable) for RCC_AHB_Peripheral_Clock_Enable
    adc.o(i.ADC_CLK_Init) refers to n32g430_rcc.o(i.RCC_APB2_Peripheral_Clock_Enable) for RCC_APB2_Peripheral_Clock_Enable
    adc.o(i.ADC_CLK_Init) refers to n32g430_adc.o(i.ADC_Clock_Mode_Config) for ADC_Clock_Mode_Config
    adc.o(i.ADC_CLK_Init) refers to n32g430_rcc.o(i.RCC_ADC_1M_Clock_Config) for RCC_ADC_1M_Clock_Config
    adc.o(i.ADC_Configuration) refers to adc.o(i.ADC_CLK_Init) for ADC_CLK_Init
    adc.o(i.ADC_Configuration) refers to adc.o(i.GPIO_Configuration) for GPIO_Configuration
    adc.o(i.ADC_Configuration) refers to adc.o(i.DMA_Configuration) for DMA_Configuration
    adc.o(i.ADC_Configuration) refers to n32g430_adc.o(i.ADC_Initializes) for ADC_Initializes
    adc.o(i.ADC_Configuration) refers to n32g430_adc.o(i.ADC_Temperature_Sensor_And_Vrefint_Channel_Enable) for ADC_Temperature_Sensor_And_Vrefint_Channel_Enable
    adc.o(i.ADC_Configuration) refers to n32g430_adc.o(i.ADC_Channel_Sample_Time_Config) for ADC_Channel_Sample_Time_Config
    adc.o(i.ADC_Configuration) refers to n32g430_adc.o(i.ADC_Regular_Sequence_Conversion_Number_Config) for ADC_Regular_Sequence_Conversion_Number_Config
    adc.o(i.ADC_Configuration) refers to n32g430_adc.o(i.ADC_DMA_Transfer_Enable) for ADC_DMA_Transfer_Enable
    adc.o(i.ADC_Configuration) refers to n32g430_adc.o(i.ADC_ON) for ADC_ON
    adc.o(i.ADC_Configuration) refers to n32g430_adc.o(i.ADC_Flag_Status_Get) for ADC_Flag_Status_Get
    adc.o(i.ADC_Configuration) refers to n32g430_adc.o(i.ADC_Calibration_Operation) for ADC_Calibration_Operation
    adc.o(i.DMA_Configuration) refers to n32g430_rcc.o(i.RCC_AHB_Peripheral_Clock_Enable) for RCC_AHB_Peripheral_Clock_Enable
    adc.o(i.DMA_Configuration) refers to n32g430_dma.o(i.DMA_Structure_Initializes) for DMA_Structure_Initializes
    adc.o(i.DMA_Configuration) refers to n32g430_dma.o(i.DMA_Initializes) for DMA_Initializes
    adc.o(i.DMA_Configuration) refers to n32g430_dma.o(i.DMA_Channel_Request_Remap) for DMA_Channel_Request_Remap
    adc.o(i.DMA_Configuration) refers to n32g430_dma.o(i.DMA_Channel_Enable) for DMA_Channel_Enable
    adc.o(i.DMA_Configuration) refers to adc.o(.bss) for ADC_Converted_Value
    adc.o(i.GPIO_Configuration) refers to n32g430_gpio.o(i.GPIO_Structure_Initialize) for GPIO_Structure_Initialize
    adc.o(i.GPIO_Configuration) refers to n32g430_gpio.o(i.GPIO_Peripheral_Initialize) for GPIO_Peripheral_Initialize
    adc.o(i.Get_Average_ADC_Converted_Value) refers to adc.o(i.Start_ADC_Convert_Once) for Start_ADC_Convert_Once
    adc.o(i.Get_Average_ADC_Converted_Value) refers to bsp_delay.o(i.SysTick_Delay_Us) for SysTick_Delay_Us
    adc.o(i.Get_Average_ADC_Converted_Value) refers to adc.o(i.TempCal) for TempCal
    adc.o(i.Get_Average_ADC_Converted_Value) refers to adc.o(.bss) for ADC_Calculation_Value
    adc.o(i.Start_ADC_Convert_Once) refers to n32g430_adc.o(i.ADC_Regular_Channels_Software_Conversion_Operation) for ADC_Regular_Channels_Software_Conversion_Operation
    adc.o(i.Start_ADC_Convert_Once) refers to n32g430_adc.o(i.ADC_Flag_Status_Get) for ADC_Flag_Status_Get
    adc.o(i.Start_ADC_Convert_Once) refers to n32g430_adc.o(i.ADC_Flag_Status_Clear) for ADC_Flag_Status_Clear
    adc.o(i.TempCal) refers to dflt_clz.o(x$fpl$dfltu) for __aeabi_ui2d
    adc.o(i.TempCal) refers to dmul.o(x$fpl$dmul) for __aeabi_dmul
    adc.o(i.TempCal) refers to d2f.o(x$fpl$d2f) for __aeabi_d2f
    spi.o(i.SPI_GPIO_Init) refers to n32g430_gpio.o(i.GPIO_Structure_Initialize) for GPIO_Structure_Initialize
    spi.o(i.SPI_GPIO_Init) refers to n32g430_gpio.o(i.GPIO_Peripheral_Initialize) for GPIO_Peripheral_Initialize
    spi.o(i.SPI_Send_Data16) refers to spi.o(i.SPI_Send_Data8) for SPI_Send_Data8
    spi.o(i.SPI_Send_Data8) refers to n32g430_gpio.o(i.GPIO_Pins_Reset) for GPIO_Pins_Reset
    spi.o(i.SPI_Send_Data8) refers to n32g430_spi.o(i.SPI_I2S_Flag_Status_Get) for SPI_I2S_Flag_Status_Get
    spi.o(i.SPI_Send_Data8) refers to n32g430_spi.o(i.SPI_I2S_Data_Transmit) for SPI_I2S_Data_Transmit
    spi.o(i.SPI_Send_Data8) refers to n32g430_gpio.o(i.GPIO_Pins_Set) for GPIO_Pins_Set
    spi.o(i.SPI_TFT_Init) refers to n32g430_rcc.o(i.RCC_APB2_Peripheral_Clock_Enable) for RCC_APB2_Peripheral_Clock_Enable
    spi.o(i.SPI_TFT_Init) refers to n32g430_spi.o(i.SPI_I2S_Reset) for SPI_I2S_Reset
    spi.o(i.SPI_TFT_Init) refers to n32g430_spi.o(i.SPI_Initializes_Structure) for SPI_Initializes_Structure
    spi.o(i.SPI_TFT_Init) refers to n32g430_spi.o(i.SPI_Initializes) for SPI_Initializes
    spi.o(i.SPI_TFT_Init) refers to n32g430_spi.o(i.SPI_Set_Nss_Level) for SPI_Set_Nss_Level
    spi.o(i.SPI_TFT_Init) refers to n32g430_spi.o(i.SPI_ON) for SPI_ON
    spi.o(i.SPI_TFT_Init) refers to spi.o(.bss) for SPI_InitStructure
    fs2711.o(i.FS2711_DPDM_Reset) refers to fs2711.o(i.FS2711_Write) for FS2711_Write
    fs2711.o(i.FS2711_DPDM_Set) refers to fs2711.o(i.FS2711_Write) for FS2711_Write
    fs2711.o(i.FS2711_Decoy_Protocol) refers to fs2711.o(i.FS2711_Debug) for FS2711_Debug
    fs2711.o(i.FS2711_Decoy_Protocol) refers to fs2711.o(i.FS2711_Enable_Protocol) for FS2711_Enable_Protocol
    fs2711.o(i.FS2711_Decoy_Protocol) refers to bsp_delay.o(i.SysTick_Delay_Ms) for SysTick_Delay_Ms
    fs2711.o(i.FS2711_Decoy_Protocol) refers to fs2711.o(i.FS2711_Select_Protocol) for FS2711_Select_Protocol
    fs2711.o(i.FS2711_Decoy_Protocol) refers to fs2711.o(i.FS2711_Select_Voltage_Current) for FS2711_Select_Voltage_Current
    fs2711.o(i.FS2711_Decoy_Protocol) refers to fs2711.o(i.FS2711_Enable_Voltage_Current) for FS2711_Enable_Voltage_Current
    fs2711.o(i.FS2711_Decoy_Protocol) refers to fs2711.o(.bss) for FS2711_Lib
    fs2711.o(i.FS2711_Decoy_Protocol) refers to fs2711.o(.data) for nowPro
    fs2711.o(i.FS2711_Enable_Protocol) refers to fs2711.o(i.FS2711_Write) for FS2711_Write
    fs2711.o(i.FS2711_Enable_Voltage_Current) refers to fs2711.o(i.FS2711_Write) for FS2711_Write
    fs2711.o(i.FS2711_Get_PD_Information) refers to fs2711.o(i.FS2711_Port_Reset) for FS2711_Port_Reset
    fs2711.o(i.FS2711_Get_PD_Information) refers to fs2711.o(i.FS2711_Enable_Protocol) for FS2711_Enable_Protocol
    fs2711.o(i.FS2711_Get_PD_Information) refers to fs2711.o(i.FS2711_Select_Protocol) for FS2711_Select_Protocol
    fs2711.o(i.FS2711_Get_PD_Information) refers to bsp_delay.o(i.SysTick_Delay_Ms) for SysTick_Delay_Ms
    fs2711.o(i.FS2711_Get_PD_Information) refers to rt_memclr_w.o(.text) for __aeabi_memclr4
    fs2711.o(i.FS2711_Get_PD_Information) refers to rt_memclr.o(.text) for __aeabi_memclr
    fs2711.o(i.FS2711_Get_PD_Information) refers to fs2711.o(i.FS2711_Read) for FS2711_Read
    fs2711.o(i.FS2711_Get_PD_Information) refers to fs2711.o(.bss) for FS2711_Lib
    fs2711.o(i.FS2711_Get_PPS_Num) refers to fs2711.o(.bss) for FS2711_Lib
    fs2711.o(i.FS2711_Get_State) refers to fs2711.o(i.FS2711_Read) for FS2711_Read
    fs2711.o(i.FS2711_Get_State) refers to fs2711.o(i.FS2711_SCP_Calc) for FS2711_SCP_Calc
    fs2711.o(i.FS2711_Get_State) refers to rt_memclr_w.o(.text) for __aeabi_memclr4
    fs2711.o(i.FS2711_Get_State) refers to rt_memclr.o(.text) for __aeabi_memclr
    fs2711.o(i.FS2711_Get_State) refers to fs2711.o(.bss) for FS2711_Lib
    fs2711.o(i.FS2711_Port_Connect) refers to fs2711.o(i.FS2711_Write) for FS2711_Write
    fs2711.o(i.FS2711_Port_Disconnect) refers to fs2711.o(i.FS2711_Write) for FS2711_Write
    fs2711.o(i.FS2711_Port_Reset) refers to fs2711.o(i.FS2711_Write) for FS2711_Write
    fs2711.o(i.FS2711_Port_Reset) refers to bsp_delay.o(i.SysTick_Delay_Ms) for SysTick_Delay_Ms
    fs2711.o(i.FS2711_Read) refers to i2c.o(i.Read_IIC) for Read_IIC
    fs2711.o(i.FS2711_Scan_Start) refers to fs2711.o(i.FS2711_Write) for FS2711_Write
    fs2711.o(i.FS2711_Select_Protocol) refers to fs2711.o(i.FS2711_Debug) for FS2711_Debug
    fs2711.o(i.FS2711_Select_Protocol) refers to fs2711.o(i.FS2711_Write) for FS2711_Write
    fs2711.o(i.FS2711_Select_Voltage_Current) refers to fs2711.o(i.FS2711_Debug) for FS2711_Debug
    fs2711.o(i.FS2711_Select_Voltage_Current) refers to fs2711.o(i.FS2711_Write) for FS2711_Write
    fs2711.o(i.FS2711_Select_Voltage_Current) refers to fs2711.o(.bss) for FS2711_Lib
    fs2711.o(i.FS2711_Set_Sweep_Mode) refers to fs2711.o(i.FS2711_Write) for FS2711_Write
    fs2711.o(i.FS2711_System_Reset) refers to fs2711.o(i.FS2711_Write) for FS2711_Write
    fs2711.o(i.FS2711_Write) refers to i2c.o(i.Write_IIC) for Write_IIC
    fs2711.o(i.HAL_GPIO_EXTI_Callback) refers to fs2711.o(i.FS2711_Get_State) for FS2711_Get_State
    i2c.o(i.FS2711_GPIO_Init) refers to n32g430_rcc.o(i.RCC_AHB_Peripheral_Clock_Enable) for RCC_AHB_Peripheral_Clock_Enable
    i2c.o(i.FS2711_GPIO_Init) refers to n32g430_gpio.o(i.GPIO_Structure_Initialize) for GPIO_Structure_Initialize
    i2c.o(i.FS2711_GPIO_Init) refers to n32g430_gpio.o(i.GPIO_Peripheral_Initialize) for GPIO_Peripheral_Initialize
    i2c.o(i.FS2711_GPIO_Init) refers to n32g430_gpio.o(i.GPIO_Pins_Set) for GPIO_Pins_Set
    i2c.o(i.I2C_ReStart) refers to i2c.o(i.PinOutInitSDA) for PinOutInitSDA
    i2c.o(i.I2C_ReStart) refers to n32g430_gpio.o(i.GPIO_Pins_Set) for GPIO_Pins_Set
    i2c.o(i.I2C_ReStart) refers to i2c.o(i.delay) for delay
    i2c.o(i.I2C_ReStart) refers to n32g430_gpio.o(i.GPIO_Pins_Reset) for GPIO_Pins_Reset
    i2c.o(i.I2C_Start) refers to i2c.o(i.PinOutInitSDA) for PinOutInitSDA
    i2c.o(i.I2C_Start) refers to n32g430_gpio.o(i.GPIO_Pins_Set) for GPIO_Pins_Set
    i2c.o(i.I2C_Start) refers to i2c.o(i.delay) for delay
    i2c.o(i.I2C_Start) refers to n32g430_gpio.o(i.GPIO_Pins_Reset) for GPIO_Pins_Reset
    i2c.o(i.I2C_Stop) refers to i2c.o(i.PinOutInitSDA) for PinOutInitSDA
    i2c.o(i.I2C_Stop) refers to n32g430_gpio.o(i.GPIO_Pins_Reset) for GPIO_Pins_Reset
    i2c.o(i.I2C_Stop) refers to i2c.o(i.delay) for delay
    i2c.o(i.I2C_Stop) refers to n32g430_gpio.o(i.GPIO_Pins_Set) for GPIO_Pins_Set
    i2c.o(i.I2C_Wait_Ack) refers to i2c.o(i.PinInInitSDA) for PinInInitSDA
    i2c.o(i.I2C_Wait_Ack) refers to n32g430_gpio.o(i.GPIO_Pins_Set) for GPIO_Pins_Set
    i2c.o(i.I2C_Wait_Ack) refers to i2c.o(i.delay) for delay
    i2c.o(i.I2C_Wait_Ack) refers to n32g430_gpio.o(i.GPIO_Pins_Reset) for GPIO_Pins_Reset
    i2c.o(i.PinInInitSDA) refers to n32g430_rcc.o(i.RCC_AHB_Peripheral_Clock_Enable) for RCC_AHB_Peripheral_Clock_Enable
    i2c.o(i.PinInInitSDA) refers to n32g430_gpio.o(i.GPIO_Structure_Initialize) for GPIO_Structure_Initialize
    i2c.o(i.PinInInitSDA) refers to n32g430_gpio.o(i.GPIO_Peripheral_Initialize) for GPIO_Peripheral_Initialize
    i2c.o(i.PinOutInitSDA) refers to n32g430_rcc.o(i.RCC_AHB_Peripheral_Clock_Enable) for RCC_AHB_Peripheral_Clock_Enable
    i2c.o(i.PinOutInitSDA) refers to n32g430_gpio.o(i.GPIO_Structure_Initialize) for GPIO_Structure_Initialize
    i2c.o(i.PinOutInitSDA) refers to n32g430_gpio.o(i.GPIO_Peripheral_Initialize) for GPIO_Peripheral_Initialize
    i2c.o(i.Read_I2C_Byte) refers to i2c.o(i.PinInInitSDA) for PinInInitSDA
    i2c.o(i.Read_I2C_Byte) refers to n32g430_gpio.o(i.GPIO_Pins_Reset) for GPIO_Pins_Reset
    i2c.o(i.Read_I2C_Byte) refers to i2c.o(i.delay) for delay
    i2c.o(i.Read_I2C_Byte) refers to n32g430_gpio.o(i.GPIO_Input_Pin_Data_Get) for GPIO_Input_Pin_Data_Get
    i2c.o(i.Read_I2C_Byte) refers to n32g430_gpio.o(i.GPIO_Pins_Set) for GPIO_Pins_Set
    i2c.o(i.Read_IIC) refers to i2c.o(i.I2C_Start) for I2C_Start
    i2c.o(i.Read_IIC) refers to i2c.o(i.Write_I2C_Byte) for Write_I2C_Byte
    i2c.o(i.Read_IIC) refers to i2c.o(i.I2C_Wait_Ack) for I2C_Wait_Ack
    i2c.o(i.Read_IIC) refers to i2c.o(i.I2C_ReStart) for I2C_ReStart
    i2c.o(i.Read_IIC) refers to i2c.o(i.Read_I2C_Byte) for Read_I2C_Byte
    i2c.o(i.Read_IIC) refers to i2c.o(i.I2C_Stop) for I2C_Stop
    i2c.o(i.Write_I2C_Byte) refers to i2c.o(i.PinOutInitSDA) for PinOutInitSDA
    i2c.o(i.Write_I2C_Byte) refers to n32g430_gpio.o(i.GPIO_Pins_Reset) for GPIO_Pins_Reset
    i2c.o(i.Write_I2C_Byte) refers to i2c.o(i.delay) for delay
    i2c.o(i.Write_I2C_Byte) refers to n32g430_gpio.o(i.GPIO_Pins_Set) for GPIO_Pins_Set
    i2c.o(i.Write_IIC) refers to i2c.o(i.I2C_Start) for I2C_Start
    i2c.o(i.Write_IIC) refers to i2c.o(i.Write_I2C_Byte) for Write_I2C_Byte
    i2c.o(i.Write_IIC) refers to i2c.o(i.I2C_Wait_Ack) for I2C_Wait_Ack
    i2c.o(i.Write_IIC) refers to i2c.o(i.I2C_Stop) for I2C_Stop
    i2c.o(i.delay) refers to bsp_delay.o(i.SysTick_Delay_Us) for SysTick_Delay_Us
    flash.o(i.FLASH_SIM_EraseEE) refers to n32g430_flash.o(i.FLASH_Unlock) for FLASH_Unlock
    flash.o(i.FLASH_SIM_EraseEE) refers to n32g430_flash.o(i.FLASH_One_Page_Erase) for FLASH_One_Page_Erase
    flash.o(i.FLASH_SIM_EraseEE) refers to n32g430_flash.o(i.FLASH_Lock) for FLASH_Lock
    flash.o(i.Flash_Read) refers to flash.o(.bss) for sg_FlashSelect
    flash.o(i.Flash_Write) refers to flash.o(i.FLASH_SIM_EraseEE) for FLASH_SIM_EraseEE
    flash.o(i.Flash_Write) refers to n32g430_flash.o(i.FLASH_Unlock) for FLASH_Unlock
    flash.o(i.Flash_Write) refers to n32g430_flash.o(i.FLASH_Word_Program) for FLASH_Word_Program
    flash.o(i.Flash_Write) refers to n32g430_flash.o(i.FLASH_Lock) for FLASH_Lock
    flash.o(i.Flash_Write) refers to flash.o(.bss) for sg_FlashSelect
    key.o(i.KEY_GetClickCnt) refers to key.o(.bss) for sg_tKeyManage
    key.o(i.KEY_GetLossenTime) refers to key.o(.bss) for sg_tKeyManage
    key.o(i.KEY_GetPressTime) refers to key.o(.bss) for sg_tKeyManage
    key.o(i.KEY_Init) refers to keyio.o(i.IoKey_Init) for IoKey_Init
    key.o(i.KEY_Init) refers to key.o(.bss) for sg_tKeyManage
    key.o(i.KEY_Register) refers to key.o(.bss) for sg_tKeyManage
    key.o(i.KEY_Scan) refers to keyio.o(i.IoKey_Scan) for IoKey_Scan
    key.o(i.KEY_Scan) refers to keyio.o(i.IoKey_Read) for IoKey_Read
    key.o(i.KEY_Scan) refers to key.o(.bss) for sg_tKeyManage
    key.o(i.KEY_SetNotifyTime) refers to key.o(.bss) for sg_tKeyManage
    key.o(i.KEY_UnRegister) refers to key.o(.bss) for sg_tKeyManage
    keyio.o(i.InitKeyIo) refers to n32g430_rcc.o(i.RCC_AHB_Peripheral_Clock_Enable) for RCC_AHB_Peripheral_Clock_Enable
    keyio.o(i.InitKeyIo) refers to n32g430_gpio.o(i.GPIO_Structure_Initialize) for GPIO_Structure_Initialize
    keyio.o(i.InitKeyIo) refers to n32g430_gpio.o(i.GPIO_Peripheral_Initialize) for GPIO_Peripheral_Initialize
    keyio.o(i.IoKey_Init) refers to keyio.o(i.InitKeyIo) for InitKeyIo
    keyio.o(i.IoKey_Init) refers to keyio.o(.data) for sg_arrKeyState
    keyio.o(i.IoKey_Read) refers to keyio.o(.data) for sg_arrKeyState
    keyio.o(i.IoKey_Scan) refers to n32g430_gpio.o(i.GPIO_Input_Pin_Data_Get) for GPIO_Input_Pin_Data_Get
    keyio.o(i.IoKey_Scan) refers to keyio.o(.data) for sg_arrKeyState
    sysclk.o(i.Set_SysClock_To_PLL128MHz) refers to n32g430_rcc.o(i.RCC_Reset) for RCC_Reset
    sysclk.o(i.Set_SysClock_To_PLL128MHz) refers to n32g430_rcc.o(i.RCC_HSI_Enable) for RCC_HSI_Enable
    sysclk.o(i.Set_SysClock_To_PLL128MHz) refers to n32g430_rcc.o(i.RCC_HSI_Stable_Wait) for RCC_HSI_Stable_Wait
    sysclk.o(i.Set_SysClock_To_PLL128MHz) refers to n32g430_flash.o(i.FLASH_Latency_Set) for FLASH_Latency_Set
    sysclk.o(i.Set_SysClock_To_PLL128MHz) refers to n32g430_rcc.o(i.RCC_Hclk_Config) for RCC_Hclk_Config
    sysclk.o(i.Set_SysClock_To_PLL128MHz) refers to n32g430_rcc.o(i.RCC_Pclk2_Config) for RCC_Pclk2_Config
    sysclk.o(i.Set_SysClock_To_PLL128MHz) refers to n32g430_rcc.o(i.RCC_Pclk1_Config) for RCC_Pclk1_Config
    sysclk.o(i.Set_SysClock_To_PLL128MHz) refers to n32g430_rcc.o(i.RCC_PLL_Config) for RCC_PLL_Config
    sysclk.o(i.Set_SysClock_To_PLL128MHz) refers to n32g430_rcc.o(i.RCC_PLL_Enable) for RCC_PLL_Enable
    sysclk.o(i.Set_SysClock_To_PLL128MHz) refers to n32g430_rcc.o(i.RCC_Sysclk_Config) for RCC_Sysclk_Config
    sysclk.o(i.Set_SysClock_To_PLL128MHz) refers to n32g430_rcc.o(i.RCC_Sysclk_Source_Get) for RCC_Sysclk_Source_Get
    menu.o(i.DeleteMenu) refers to menu.o(.data) for sg_currMenuDepth
    menu.o(i.Menu_Bind) refers to menu.o(.data) for sg_tMenuManage
    menu.o(i.Menu_DeInit) refers to menu.o(i.Menu_Exit) for Menu_Exit
    menu.o(i.Menu_DeInit) refers to menu.o(i.DeleteMenu) for DeleteMenu
    menu.o(i.Menu_DeInit) refers to menu.o(.data) for sg_tMenuManage
    menu.o(i.Menu_EnableEnglish) refers to menu.o(.data) for sg_tMenuManage
    menu.o(i.Menu_Enter) refers to menu.o(i.NewMenu) for NewMenu
    menu.o(i.Menu_Enter) refers to menu.o(.data) for sg_tMenuManage
    menu.o(i.Menu_Exit) refers to menu.o(i.Menu_SetItemBeginLocation) for Menu_SetItemBeginLocation
    menu.o(i.Menu_Exit) refers to menu.o(i.DeleteMenu) for DeleteMenu
    menu.o(i.Menu_Exit) refers to menu.o(.data) for sg_tMenuManage
    menu.o(i.Menu_Init) refers to menu.o(i.NewMenu) for NewMenu
    menu.o(i.Menu_Init) refers to menu.o(.data) for sg_tMenuManage
    menu.o(i.Menu_IsEnglish) refers to menu.o(.data) for sg_tMenuManage
    menu.o(i.Menu_IsRun) refers to menu.o(.data) for sg_tMenuManage
    menu.o(i.Menu_QueryParentMenu) refers to menu.o(.data) for sg_tMenuManage
    menu.o(i.Menu_Reset) refers to menu.o(i.DeleteMenu) for DeleteMenu
    menu.o(i.Menu_Reset) refers to menu.o(.data) for sg_tMenuManage
    menu.o(i.Menu_ResetItemsNum) refers to menu.o(.data) for sg_tMenuManage
    menu.o(i.Menu_SelectNext) refers to menu.o(.data) for sg_tMenuManage
    menu.o(i.Menu_SelectPrevious) refers to menu.o(.data) for sg_tMenuManage
    menu.o(i.Menu_SetItemBeginLocation) refers to menu.o(.data) for Location
    menu.o(i.Menu_SetShowBaseItem) refers to menu.o(.data) for sg_tMenuManage
    menu.o(i.Menu_ShortcutEnter) refers to menu.o(i.Menu_Reset) for Menu_Reset
    menu.o(i.Menu_ShortcutEnter) refers to menu.o(i.Menu_Enter) for Menu_Enter
    menu.o(i.Menu_ShortcutEnter) refers to menu.o(.data) for sg_tMenuManage
    menu.o(i.Menu_Task) refers to menu.o(.data) for sg_tMenuManage
    menu.o(i.NewMenu) refers to menu.o(.data) for sg_currMenuDepth
    menu.o(i.NewMenu) refers to menu.o(.bss) for sg_arrMenuCtrl
    ui.o(i.Key_Start_Task) refers to key.o(i.KEY_Register) for KEY_Register
    ui.o(i.Key_Start_Task) refers to ui.o(i.OnKeyActionProessUp) for OnKeyActionProessUp
    ui.o(i.Key_Start_Task) refers to ui.o(i.OnKeyActionProessDown) for OnKeyActionProessDown
    ui.o(i.Key_Start_Task) refers to ui.o(i.OnKeyActionProess) for OnKeyActionProess
    ui.o(i.OnKeyActionProess) refers to key.o(i.KEY_SetNotifyTime) for KEY_SetNotifyTime
    ui.o(i.OnKeyActionProess) refers to key.o(i.KEY_GetPressTime) for KEY_GetPressTime
    ui.o(i.OnKeyActionProess) refers to fs2711.o(i.FS2711_Port_Reset) for FS2711_Port_Reset
    ui.o(i.OnKeyActionProess) refers to menu.o(i.Menu_Exit) for Menu_Exit
    ui.o(i.OnKeyActionProess) refers to key.o(i.KEY_GetClickCnt) for KEY_GetClickCnt
    ui.o(i.OnKeyActionProess) refers to lcd.o(i.LCD_Roll) for LCD_Roll
    ui.o(i.OnKeyActionProess) refers to lcd.o(i.LCD_Fill) for LCD_Fill
    ui.o(i.OnKeyActionProess) refers to fs2711.o(i.FS2711_Port_Disconnect) for FS2711_Port_Disconnect
    ui.o(i.OnKeyActionProess) refers to menu.o(i.Menu_Enter) for Menu_Enter
    ui.o(i.OnKeyActionProess) refers to ui.o(.data) for Key_Ok_Func
    ui.o(i.OnKeyActionProess) refers to ui_measure.o(.data) for MeasureFlag
    ui.o(i.OnKeyActionProess) refers to flash.o(.bss) for sg_FlashSelect
    ui.o(i.OnKeyActionProessDown) refers to menu.o(i.Menu_SelectPrevious) for Menu_SelectPrevious
    ui.o(i.OnKeyActionProessDown) refers to menu.o(i.Menu_SelectNext) for Menu_SelectNext
    ui.o(i.OnKeyActionProessDown) refers to ui.o(.data) for Screen_Roll
    ui.o(i.OnKeyActionProessUp) refers to menu.o(i.Menu_SelectPrevious) for Menu_SelectPrevious
    ui.o(i.OnKeyActionProessUp) refers to menu.o(i.Menu_SelectNext) for Menu_SelectNext
    ui.o(i.OnKeyActionProessUp) refers to ui.o(.data) for Screen_Roll
    ui.o(i.ShowMainMenu) refers to lcd.o(i.LCD_ShowString) for LCD_ShowString
    ui.o(i.ShowMainMenu) refers to lcd.o(i.LCD_ShowPicture) for LCD_ShowPicture
    ui.o(i.ShowMainMenu) refers to ui.o(.constdata) for gImage_measu
    ui.o(i.UI_Main_Load) refers to lcd.o(i.LCD_Roll) for LCD_Roll
    ui.o(i.UI_Main_Load) refers to lcd.o(i.LCD_Fill) for LCD_Fill
    ui.o(i.UI_Main_Load) refers to menu.o(i.Menu_Bind) for Menu_Bind
    ui.o(i.UI_Main_Load) refers to flash.o(.bss) for sg_FlashSelect
    ui.o(i.UI_Main_Load) refers to ui.o(.data) for Screen_Roll
    ui.o(i.UI_Main_Load) refers to ui.o(i.ShowMainMenu) for ShowMainMenu
    ui.o(.data) refers to ui.o(.conststring) for .conststring
    ui.o(.data) refers to ui_measure.o(i.UI_Measure_Load) for UI_Measure_Load
    ui.o(.data) refers to ui_measure.o(i.UI_Measure_Exit) for UI_Measure_Exit
    ui.o(.data) refers to ui_measure.o(i.UI_Measure_Task) for UI_Measure_Task
    ui.o(.data) refers to ui_adjust.o(i.UI_Adjust_Load) for UI_Adjust_Load
    ui.o(.data) refers to ui_adjust.o(i.UI_Adjust_Exit) for UI_Adjust_Exit
    ui.o(.data) refers to ui_adjust.o(i.UI_Adjust_Task) for UI_Adjust_Task
    ui_measure.o(i.UI_Measure_Exit) refers to lcd.o(i.LCD_Fill) for LCD_Fill
    ui_measure.o(i.UI_Measure_Exit) refers to ui_measure.o(.data) for MeasureFlag
    ui_measure.o(i.UI_Measure_Load) refers to lcd.o(i.LCD_Fill) for LCD_Fill
    ui_measure.o(i.UI_Measure_Load) refers to ui_measure.o(.data) for MeasureFlag
    ui_measure.o(i.UI_Measure_Task) refers to _printf_percent.o(.ARM.Collect$$_printf_percent$$00000000) for _printf_percent
    ui_measure.o(i.UI_Measure_Task) refers to _printf_f.o(.ARM.Collect$$_printf_percent$$00000003) for _printf_f
    ui_measure.o(i.UI_Measure_Task) refers to printf1.o(x$fpl$printf1) for _printf_fp_dec
    ui_measure.o(i.UI_Measure_Task) refers to adc.o(i.Get_Average_ADC_Converted_Value) for Get_Average_ADC_Converted_Value
    ui_measure.o(i.UI_Measure_Task) refers to f2d.o(x$fpl$f2d) for __aeabi_f2d
    ui_measure.o(i.UI_Measure_Task) refers to noretval__2sprintf.o(.text) for __2sprintf
    ui_measure.o(i.UI_Measure_Task) refers to lcd.o(i.LCD_ShowString) for LCD_ShowString
    ui_measure.o(i.UI_Measure_Task) refers to lcd.o(i.LCD_Fill) for LCD_Fill
    ui_measure.o(i.UI_Measure_Task) refers to ui_measure.o(.data) for ConnectFlag
    ui_measure.o(i.UI_Measure_Task) refers to adc.o(.bss) for ADC_Calculation_Value
    ui_adjust.o(i.Key_Register_PD) refers to key.o(i.KEY_Register) for KEY_Register
    ui_adjust.o(i.Key_Register_PD) refers to ui_adjust.o(i.OnKeyOkPDProess) for OnKeyOkPDProess
    ui_adjust.o(i.Key_Register_QC) refers to key.o(i.KEY_Register) for KEY_Register
    ui_adjust.o(i.Key_Register_QC) refers to ui_adjust.o(i.OnKeyOkQCProess) for OnKeyOkQCProess
    ui_adjust.o(i.OnKeyOkPDProess) refers to key.o(i.KEY_SetNotifyTime) for KEY_SetNotifyTime
    ui_adjust.o(i.OnKeyOkPDProess) refers to key.o(i.KEY_GetPressTime) for KEY_GetPressTime
    ui_adjust.o(i.OnKeyOkPDProess) refers to menu.o(i.Menu_Exit) for Menu_Exit
    ui_adjust.o(i.OnKeyOkPDProess) refers to key.o(i.KEY_GetClickCnt) for KEY_GetClickCnt
    ui_adjust.o(i.OnKeyOkPDProess) refers to lcd.o(i.LCD_Roll) for LCD_Roll
    ui_adjust.o(i.OnKeyOkPDProess) refers to ui_adjust.o(i.PD_Ok) for PD_Ok
    ui_adjust.o(i.OnKeyOkPDProess) refers to ui.o(.data) for Key_Ok_Func
    ui_adjust.o(i.OnKeyOkPDProess) refers to ui_adjust.o(.data) for cnt
    ui_adjust.o(i.OnKeyOkPDProess) refers to flash.o(.bss) for sg_FlashSelect
    ui_adjust.o(i.OnKeyOkQCProess) refers to key.o(i.KEY_SetNotifyTime) for KEY_SetNotifyTime
    ui_adjust.o(i.OnKeyOkQCProess) refers to key.o(i.KEY_GetPressTime) for KEY_GetPressTime
    ui_adjust.o(i.OnKeyOkQCProess) refers to menu.o(i.Menu_Exit) for Menu_Exit
    ui_adjust.o(i.OnKeyOkQCProess) refers to key.o(i.KEY_GetClickCnt) for KEY_GetClickCnt
    ui_adjust.o(i.OnKeyOkQCProess) refers to lcd.o(i.LCD_Roll) for LCD_Roll
    ui_adjust.o(i.OnKeyOkQCProess) refers to ui_adjust.o(i.QC_Ok) for QC_Ok
    ui_adjust.o(i.OnKeyOkQCProess) refers to ui.o(.data) for Key_Ok_Func
    ui_adjust.o(i.OnKeyOkQCProess) refers to ui_adjust.o(.data) for cnt
    ui_adjust.o(i.OnKeyOkQCProess) refers to flash.o(.bss) for sg_FlashSelect
    ui_adjust.o(i.OnPDFunction) refers to _printf_percent.o(.ARM.Collect$$_printf_percent$$00000000) for _printf_percent
    ui_adjust.o(i.OnPDFunction) refers to _printf_f.o(.ARM.Collect$$_printf_percent$$00000003) for _printf_f
    ui_adjust.o(i.OnPDFunction) refers to printf1.o(x$fpl$printf1) for _printf_fp_dec
    ui_adjust.o(i.OnPDFunction) refers to adc.o(i.Get_Average_ADC_Converted_Value) for Get_Average_ADC_Converted_Value
    ui_adjust.o(i.OnPDFunction) refers to f2d.o(x$fpl$f2d) for __aeabi_f2d
    ui_adjust.o(i.OnPDFunction) refers to noretval__2sprintf.o(.text) for __2sprintf
    ui_adjust.o(i.OnPDFunction) refers to lcd.o(i.LCD_ShowString) for LCD_ShowString
    ui_adjust.o(i.OnPDFunction) refers to adc.o(.bss) for ADC_Calculation_Value
    ui_adjust.o(i.OnPDFunctionExit) refers to lcd.o(i.LCD_Fill) for LCD_Fill
    ui_adjust.o(i.OnPDFunctionExit) refers to ui.o(i.Key_Start_Task) for Key_Start_Task
    ui_adjust.o(i.OnPDFunctionExit) refers to flash.o(i.Flash_Write) for Flash_Write
    ui_adjust.o(i.OnPDFunctionExit) refers to decoy.o(i.EnableNewProtocol) for EnableNewProtocol
    ui_adjust.o(i.OnPDFunctionExit) refers to flash.o(.bss) for sg_FlashSelect
    ui_adjust.o(i.OnPDFunctionExit) refers to fs2711.o(.bss) for FS2711_Lib
    ui_adjust.o(i.OnPDFunctionLoad) refers to lcd.o(i.LCD_Fill) for LCD_Fill
    ui_adjust.o(i.OnPDFunctionLoad) refers to lcd.o(i.LCD_Roll) for LCD_Roll
    ui_adjust.o(i.OnPDFunctionLoad) refers to menu.o(i.Menu_Bind) for Menu_Bind
    ui_adjust.o(i.OnPDFunctionLoad) refers to ui_adjust.o(i.Key_Register_PD) for Key_Register_PD
    ui_adjust.o(i.OnPDFunctionLoad) refers to flash.o(i.Flash_Write) for Flash_Write
    ui_adjust.o(i.OnPDFunctionLoad) refers to fs2711.o(i.FS2711_System_Reset) for FS2711_System_Reset
    ui_adjust.o(i.OnPDFunctionLoad) refers to bsp_delay.o(i.SysTick_Delay_Ms) for SysTick_Delay_Ms
    ui_adjust.o(i.OnPDFunctionLoad) refers to fs2711.o(i.FS2711_Enable_Protocol) for FS2711_Enable_Protocol
    ui_adjust.o(i.OnPDFunctionLoad) refers to fs2711.o(i.FS2711_Port_Reset) for FS2711_Port_Reset
    ui_adjust.o(i.OnPDFunctionLoad) refers to fs2711.o(i.FS2711_Select_Protocol) for FS2711_Select_Protocol
    ui_adjust.o(i.OnPDFunctionLoad) refers to fs2711.o(i.FS2711_Get_State) for FS2711_Get_State
    ui_adjust.o(i.OnPDFunctionLoad) refers to flash.o(.bss) for sg_FlashSelect
    ui_adjust.o(i.OnPDFunctionLoad) refers to ui_adjust.o(i.ShowPdMainMenu) for ShowPdMainMenu
    ui_adjust.o(i.OnPDFunctionLoad) refers to ui_adjust.o(.data) for sg_PDMenuTable
    ui_adjust.o(i.OnQCFunction) refers to _printf_percent.o(.ARM.Collect$$_printf_percent$$00000000) for _printf_percent
    ui_adjust.o(i.OnQCFunction) refers to _printf_f.o(.ARM.Collect$$_printf_percent$$00000003) for _printf_f
    ui_adjust.o(i.OnQCFunction) refers to printf1.o(x$fpl$printf1) for _printf_fp_dec
    ui_adjust.o(i.OnQCFunction) refers to adc.o(i.Get_Average_ADC_Converted_Value) for Get_Average_ADC_Converted_Value
    ui_adjust.o(i.OnQCFunction) refers to f2d.o(x$fpl$f2d) for __aeabi_f2d
    ui_adjust.o(i.OnQCFunction) refers to noretval__2sprintf.o(.text) for __2sprintf
    ui_adjust.o(i.OnQCFunction) refers to lcd.o(i.LCD_ShowString) for LCD_ShowString
    ui_adjust.o(i.OnQCFunction) refers to adc.o(.bss) for ADC_Calculation_Value
    ui_adjust.o(i.OnQCFunctionExit) refers to lcd.o(i.LCD_Fill) for LCD_Fill
    ui_adjust.o(i.OnQCFunctionExit) refers to ui.o(i.Key_Start_Task) for Key_Start_Task
    ui_adjust.o(i.OnQCFunctionExit) refers to flash.o(i.Flash_Write) for Flash_Write
    ui_adjust.o(i.OnQCFunctionExit) refers to decoy.o(i.EnableNewProtocol) for EnableNewProtocol
    ui_adjust.o(i.OnQCFunctionExit) refers to flash.o(.bss) for sg_FlashSelect
    ui_adjust.o(i.OnQCFunctionLoad) refers to lcd.o(i.LCD_Fill) for LCD_Fill
    ui_adjust.o(i.OnQCFunctionLoad) refers to lcd.o(i.LCD_Roll) for LCD_Roll
    ui_adjust.o(i.OnQCFunctionLoad) refers to menu.o(i.Menu_Bind) for Menu_Bind
    ui_adjust.o(i.OnQCFunctionLoad) refers to ui_adjust.o(i.Key_Register_QC) for Key_Register_QC
    ui_adjust.o(i.OnQCFunctionLoad) refers to flash.o(i.Flash_Write) for Flash_Write
    ui_adjust.o(i.OnQCFunctionLoad) refers to fs2711.o(i.FS2711_Port_Disconnect) for FS2711_Port_Disconnect
    ui_adjust.o(i.OnQCFunctionLoad) refers to decoy.o(i.mcuRestart) for mcuRestart
    ui_adjust.o(i.OnQCFunctionLoad) refers to fs2711.o(i.FS2711_System_Reset) for FS2711_System_Reset
    ui_adjust.o(i.OnQCFunctionLoad) refers to bsp_delay.o(i.SysTick_Delay_Ms) for SysTick_Delay_Ms
    ui_adjust.o(i.OnQCFunctionLoad) refers to fs2711.o(i.FS2711_Enable_Protocol) for FS2711_Enable_Protocol
    ui_adjust.o(i.OnQCFunctionLoad) refers to fs2711.o(i.FS2711_Port_Reset) for FS2711_Port_Reset
    ui_adjust.o(i.OnQCFunctionLoad) refers to fs2711.o(i.FS2711_Select_Protocol) for FS2711_Select_Protocol
    ui_adjust.o(i.OnQCFunctionLoad) refers to lcd.o(i.LCD_ShowString) for LCD_ShowString
    ui_adjust.o(i.OnQCFunctionLoad) refers to fs2711.o(i.FS2711_Select_Voltage_Current) for FS2711_Select_Voltage_Current
    ui_adjust.o(i.OnQCFunctionLoad) refers to fs2711.o(i.FS2711_Enable_Voltage_Current) for FS2711_Enable_Voltage_Current
    ui_adjust.o(i.OnQCFunctionLoad) refers to flash.o(.bss) for sg_FlashSelect
    ui_adjust.o(i.OnQCFunctionLoad) refers to ui_adjust.o(i.ShowQCMainMenu) for ShowQCMainMenu
    ui_adjust.o(i.OnQCFunctionLoad) refers to ui_adjust.o(.data) for sg_QCMenuTable
    ui_adjust.o(i.PD_Ok) refers to ui_adjust.o(i.Set_PD_Protocol) for Set_PD_Protocol
    ui_adjust.o(i.PD_Ok) refers to decoy.o(i.EnableNewProtocol) for EnableNewProtocol
    ui_adjust.o(i.PD_Ok) refers to ui_adjust.o(.data) for pps_sel
    ui_adjust.o(i.PD_Ok) refers to flash.o(.bss) for sg_FlashSelect
    ui_adjust.o(i.PD_Ok) refers to fs2711.o(.bss) for FS2711_Lib
    ui_adjust.o(i.QC_Ok) refers to ui_adjust.o(i.Set_QC_Protocol) for Set_QC_Protocol
    ui_adjust.o(i.QC_Ok) refers to decoy.o(i.EnableNewProtocol) for EnableNewProtocol
    ui_adjust.o(i.QC_Ok) refers to ui_adjust.o(.data) for pps_sel
    ui_adjust.o(i.QC_Ok) refers to flash.o(.bss) for sg_FlashSelect
    ui_adjust.o(i.Set_PD_Protocol) refers to decoy.o(i.EnableNewProtocol) for EnableNewProtocol
    ui_adjust.o(i.Set_PD_Protocol) refers to ui_adjust.o(.data) for temp_mode
    ui_adjust.o(i.Set_QC_Protocol) refers to decoy.o(i.EnableNewProtocol) for EnableNewProtocol
    ui_adjust.o(i.Set_QC_Protocol) refers to ui_adjust.o(.data) for temp_mode
    ui_adjust.o(i.ShowAdjMainMenu) refers to menu.o(i.Menu_LimitShowListNum) for Menu_LimitShowListNum
    ui_adjust.o(i.ShowAdjMainMenu) refers to lcd.o(i.LCD_ShowString) for LCD_ShowString
    ui_adjust.o(i.ShowPdMainMenu) refers to _printf_percent.o(.ARM.Collect$$_printf_percent$$00000000) for _printf_percent
    ui_adjust.o(i.ShowPdMainMenu) refers to _printf_f.o(.ARM.Collect$$_printf_percent$$00000003) for _printf_f
    ui_adjust.o(i.ShowPdMainMenu) refers to printf1.o(x$fpl$printf1) for _printf_fp_dec
    ui_adjust.o(i.ShowPdMainMenu) refers to fs2711.o(i.FS2711_Get_PPS_Num) for FS2711_Get_PPS_Num
    ui_adjust.o(i.ShowPdMainMenu) refers to lcd.o(i.LCD_ShowString) for LCD_ShowString
    ui_adjust.o(i.ShowPdMainMenu) refers to menu.o(i.Menu_SetItemBeginLocation) for Menu_SetItemBeginLocation
    ui_adjust.o(i.ShowPdMainMenu) refers to menu.o(i.Menu_ResetItemsNum) for Menu_ResetItemsNum
    ui_adjust.o(i.ShowPdMainMenu) refers to menu.o(i.Menu_LimitShowListNum) for Menu_LimitShowListNum
    ui_adjust.o(i.ShowPdMainMenu) refers to dflt_clz.o(x$fpl$dfltu) for __aeabi_ui2d
    ui_adjust.o(i.ShowPdMainMenu) refers to dmul.o(x$fpl$dmul) for __aeabi_dmul
    ui_adjust.o(i.ShowPdMainMenu) refers to ddiv.o(x$fpl$ddiv) for __aeabi_ddiv
    ui_adjust.o(i.ShowPdMainMenu) refers to noretval__2sprintf.o(.text) for __2sprintf
    ui_adjust.o(i.ShowPdMainMenu) refers to strlen.o(.text) for strlen
    ui_adjust.o(i.ShowPdMainMenu) refers to menu.o(i.Menu_SetShowBaseItem) for Menu_SetShowBaseItem
    ui_adjust.o(i.ShowPdMainMenu) refers to strcmpv7m.o(.text) for strcmp
    ui_adjust.o(i.ShowPdMainMenu) refers to fs2711.o(.bss) for FS2711_Lib
    ui_adjust.o(i.ShowPdMainMenu) refers to flash.o(.bss) for sg_FlashSelect
    ui_adjust.o(i.ShowPdMainMenu) refers to ui_adjust.o(.bss) for PdMenuVolt
    ui_adjust.o(i.ShowPdMainMenu) refers to ui_adjust.o(.data) for pps_sel
    ui_adjust.o(i.ShowPdMainMenu) refers to rt_memclr_w.o(.text) for __aeabi_memclr4
    ui_adjust.o(i.ShowQCMainMenu) refers to _printf_percent.o(.ARM.Collect$$_printf_percent$$00000000) for _printf_percent
    ui_adjust.o(i.ShowQCMainMenu) refers to _printf_f.o(.ARM.Collect$$_printf_percent$$00000003) for _printf_f
    ui_adjust.o(i.ShowQCMainMenu) refers to printf1.o(x$fpl$printf1) for _printf_fp_dec
    ui_adjust.o(i.ShowQCMainMenu) refers to menu.o(i.Menu_LimitShowListNum) for Menu_LimitShowListNum
    ui_adjust.o(i.ShowQCMainMenu) refers to lcd.o(i.LCD_ShowString) for LCD_ShowString
    ui_adjust.o(i.ShowQCMainMenu) refers to strcmpv7m.o(.text) for strcmp
    ui_adjust.o(i.ShowQCMainMenu) refers to rt_memclr_w.o(.text) for __aeabi_memclr4
    ui_adjust.o(i.ShowQCMainMenu) refers to dflt_clz.o(x$fpl$dfltu) for __aeabi_ui2d
    ui_adjust.o(i.ShowQCMainMenu) refers to ddiv.o(x$fpl$ddiv) for __aeabi_ddiv
    ui_adjust.o(i.ShowQCMainMenu) refers to noretval__2sprintf.o(.text) for __2sprintf
    ui_adjust.o(i.ShowQCMainMenu) refers to flash.o(.bss) for sg_FlashSelect
    ui_adjust.o(i.ShowQCMainMenu) refers to ui_adjust.o(.data) for pps_sel
    ui_adjust.o(i.ShowQCMainMenu) refers to ui_adjust.o(.constdata) for QC_Value
    ui_adjust.o(i.UI_Adjust_Exit) refers to lcd.o(i.LCD_Fill) for LCD_Fill
    ui_adjust.o(i.UI_Adjust_Exit) refers to ui.o(i.Key_Start_Task) for Key_Start_Task
    ui_adjust.o(i.UI_Adjust_Load) refers to lcd.o(i.LCD_Fill) for LCD_Fill
    ui_adjust.o(i.UI_Adjust_Load) refers to menu.o(i.Menu_Bind) for Menu_Bind
    ui_adjust.o(i.UI_Adjust_Load) refers to ui_adjust.o(i.ShowAdjMainMenu) for ShowAdjMainMenu
    ui_adjust.o(i.UI_Adjust_Load) refers to ui_adjust.o(.data) for sg_AdjMenuTable
    ui_adjust.o(.data) refers to ui_adjust.o(.conststring) for .conststring
    ui_adjust.o(.data) refers to ui_adjust.o(i.OnPDFunctionLoad) for OnPDFunctionLoad
    ui_adjust.o(.data) refers to ui_adjust.o(i.OnPDFunctionExit) for OnPDFunctionExit
    ui_adjust.o(.data) refers to ui_adjust.o(i.OnPDFunction) for OnPDFunction
    ui_adjust.o(.data) refers to ui_adjust.o(i.OnQCFunctionLoad) for OnQCFunctionLoad
    ui_adjust.o(.data) refers to ui_adjust.o(i.OnQCFunctionExit) for OnQCFunctionExit
    ui_adjust.o(.data) refers to ui_adjust.o(i.OnQCFunction) for OnQCFunction
    ui_adjust.o(.data) refers to ui_adjust.o(.bss) for PdMenuVolt
    decoy.o(i.Decoy) refers to fs2711.o(i.FS2711_Select_Voltage_Current) for FS2711_Select_Voltage_Current
    decoy.o(i.Decoy) refers to fs2711.o(i.FS2711_Enable_Voltage_Current) for FS2711_Enable_Voltage_Current
    decoy.o(i.Decoy) refers to flash.o(.bss) for sg_FlashSelect
    decoy.o(i.EnableNewProtocol) refers to flash.o(i.Flash_Write) for Flash_Write
    decoy.o(i.EnableNewProtocol) refers to fs2711.o(i.FS2711_Enable_Protocol) for FS2711_Enable_Protocol
    decoy.o(i.EnableNewProtocol) refers to fs2711.o(i.FS2711_Port_Reset) for FS2711_Port_Reset
    decoy.o(i.EnableNewProtocol) refers to fs2711.o(i.FS2711_Select_Protocol) for FS2711_Select_Protocol
    decoy.o(i.EnableNewProtocol) refers to bsp_delay.o(i.SysTick_Delay_Ms) for SysTick_Delay_Ms
    decoy.o(i.EnableNewProtocol) refers to fs2711.o(i.FS2711_Select_Voltage_Current) for FS2711_Select_Voltage_Current
    decoy.o(i.EnableNewProtocol) refers to fs2711.o(i.FS2711_Enable_Voltage_Current) for FS2711_Enable_Voltage_Current
    decoy.o(i.EnableNewProtocol) refers to decoy.o(i.mcuRestart) for mcuRestart
    decoy.o(i.EnableNewProtocol) refers to flash.o(.bss) for sg_FlashSelect
    decoy.o(i.EnableNewProtocol) refers to fs2711.o(.bss) for FS2711_Lib
    decoy.o(i.Init_FS2711) refers to fs2711.o(i.FS2711_System_Reset) for FS2711_System_Reset
    decoy.o(i.Init_FS2711) refers to fs2711.o(i.FS2711_Port_Reset) for FS2711_Port_Reset
    decoy.o(i.Init_FS2711) refers to fs2711.o(i.FS2711_Enable_Protocol) for FS2711_Enable_Protocol
    decoy.o(i.Init_FS2711) refers to flash.o(i.Flash_Write) for Flash_Write
    decoy.o(i.Init_FS2711) refers to menu.o(i.Menu_ShortcutEnter) for Menu_ShortcutEnter
    decoy.o(i.Init_FS2711) refers to flash.o(.bss) for sg_FlashSelect
    __2sprintf.o(.text) refers to _printf_char_common.o(.text) for _printf_char_common
    __2sprintf.o(.text) refers to _sputc.o(.text) for _sputc
    noretval__2sprintf.o(.text) refers to _printf_char_common.o(.text) for _printf_char_common
    noretval__2sprintf.o(.text) refers to _sputc.o(.text) for _sputc
    __printf.o(.text) refers to _printf_percent.o(.ARM.Collect$$_printf_percent$$00000000) for _printf_percent
    __printf_flags.o(.text) refers to _printf_percent.o(.ARM.Collect$$_printf_percent$$00000000) for _printf_percent
    __printf_flags.o(.text) refers to __printf_flags.o(.constdata) for .constdata
    __printf_ss.o(.text) refers to _printf_percent.o(.ARM.Collect$$_printf_percent$$00000000) for _printf_percent
    __printf_flags_ss.o(.text) refers to _printf_percent.o(.ARM.Collect$$_printf_percent$$00000000) for _printf_percent
    __printf_flags_ss.o(.text) refers to __printf_flags_ss.o(.constdata) for .constdata
    __printf_wp.o(.text) refers to __printf_wp.o(i._is_digit) for _is_digit
    __printf_wp.o(.text) refers to _printf_percent.o(.ARM.Collect$$_printf_percent$$00000000) for _printf_percent
    __printf_flags_wp.o(.text) refers to __printf_wp.o(i._is_digit) for _is_digit
    __printf_flags_wp.o(.text) refers to _printf_percent.o(.ARM.Collect$$_printf_percent$$00000000) for _printf_percent
    __printf_flags_wp.o(.text) refers to __printf_flags_wp.o(.constdata) for .constdata
    __printf_ss_wp.o(.text) refers to __printf_wp.o(i._is_digit) for _is_digit
    __printf_ss_wp.o(.text) refers to _printf_percent.o(.ARM.Collect$$_printf_percent$$00000000) for _printf_percent
    __printf_flags_ss_wp.o(.text) refers to __printf_wp.o(i._is_digit) for _is_digit
    __printf_flags_ss_wp.o(.text) refers to _printf_percent.o(.ARM.Collect$$_printf_percent$$00000000) for _printf_percent
    __printf_flags_ss_wp.o(.text) refers to __printf_flags_ss_wp.o(.constdata) for .constdata
    _printf_f.o(.ARM.Collect$$_printf_percent$$00000003) refers (Weak) to printf1.o(x$fpl$printf1) for _printf_fp_dec
    _printf_percent.o(.ARM.Collect$$_printf_percent$$00000000) refers (Special) to _printf_percent_end.o(.ARM.Collect$$_printf_percent$$00000017) for _printf_percent_end
    rt_memclr.o(.text) refers to rt_memclr_w.o(.text) for _memset_w
    __main.o(!!!main) refers to __rtentry.o(.ARM.Collect$$rtentry$$00000000) for __rt_entry
    d2f.o(x$fpl$d2f) refers (Special) to usenofp.o(x$fpl$usenofp) for __I$use$fp
    d2f.o(x$fpl$d2f) refers to fretinf.o(x$fpl$fretinf) for __fpl_fretinf
    d2f.o(x$fpl$d2f) refers to dnaninf.o(x$fpl$dnaninf) for __fpl_dnaninf
    ddiv.o(x$fpl$drdiv) refers (Special) to usenofp.o(x$fpl$usenofp) for __I$use$fp
    ddiv.o(x$fpl$drdiv) refers to ddiv.o(x$fpl$ddiv) for ddiv_entry
    ddiv.o(x$fpl$ddiv) refers (Special) to usenofp.o(x$fpl$usenofp) for __I$use$fp
    ddiv.o(x$fpl$ddiv) refers to dretinf.o(x$fpl$dretinf) for __fpl_dretinf
    ddiv.o(x$fpl$ddiv) refers to dnaninf.o(x$fpl$dnaninf) for __fpl_dnaninf
    dflt_clz.o(x$fpl$dfltu) refers (Special) to usenofp.o(x$fpl$usenofp) for __I$use$fp
    dflt_clz.o(x$fpl$dflt) refers (Special) to usenofp.o(x$fpl$usenofp) for __I$use$fp
    dflt_clz.o(x$fpl$dfltn) refers (Special) to usenofp.o(x$fpl$usenofp) for __I$use$fp
    dmul.o(x$fpl$dmul) refers (Special) to usenofp.o(x$fpl$usenofp) for __I$use$fp
    dmul.o(x$fpl$dmul) refers to dretinf.o(x$fpl$dretinf) for __fpl_dretinf
    dmul.o(x$fpl$dmul) refers to dnaninf.o(x$fpl$dnaninf) for __fpl_dnaninf
    f2d.o(x$fpl$f2d) refers (Special) to usenofp.o(x$fpl$usenofp) for __I$use$fp
    f2d.o(x$fpl$f2d) refers to fnaninf.o(x$fpl$fnaninf) for __fpl_fnaninf
    f2d.o(x$fpl$f2d) refers to dretinf.o(x$fpl$dretinf) for __fpl_dretinf
    printf1.o(x$fpl$printf1) refers to _printf_fp_dec.o(.text) for _printf_fp_dec_real
    __rtentry.o(.ARM.Collect$$rtentry$$00000000) refers (Special) to __rtentry2.o(.ARM.Collect$$rtentry$$0000000A) for __rt_entry_li
    __rtentry.o(.ARM.Collect$$rtentry$$00000000) refers (Special) to __rtentry2.o(.ARM.Collect$$rtentry$$0000000D) for __rt_entry_main
    __rtentry.o(.ARM.Collect$$rtentry$$00000000) refers (Special) to __rtentry2.o(.ARM.Collect$$rtentry$$0000000C) for __rt_entry_postli_1
    __rtentry.o(.ARM.Collect$$rtentry$$00000000) refers (Special) to __rtentry2.o(.ARM.Collect$$rtentry$$00000009) for __rt_entry_postsh_1
    __rtentry.o(.ARM.Collect$$rtentry$$00000000) refers (Special) to __rtentry2.o(.ARM.Collect$$rtentry$$00000002) for __rt_entry_presh_1
    __rtentry.o(.ARM.Collect$$rtentry$$00000000) refers (Special) to __rtentry4.o(.ARM.Collect$$rtentry$$00000004) for __rt_entry_sh
    _printf_fp_dec.o(.text) refers (Special) to usenofp.o(x$fpl$usenofp) for __I$use$fp
    _printf_fp_dec.o(.text) refers (Special) to lc_numeric_c.o(locale$$code) for _get_lc_numeric
    _printf_fp_dec.o(.text) refers to bigflt0.o(.text) for _btod_etento
    _printf_fp_dec.o(.text) refers to btod.o(CL$$btod_d2e) for _btod_d2e
    _printf_fp_dec.o(.text) refers to btod.o(CL$$btod_ediv) for _btod_ediv
    _printf_fp_dec.o(.text) refers to btod.o(CL$$btod_emul) for _btod_emul
    _printf_fp_dec.o(.text) refers to lludiv10.o(.text) for _ll_udiv10
    _printf_fp_dec.o(.text) refers to fpclassify.o(i.__ARM_fpclassify) for __ARM_fpclassify
    _printf_fp_dec.o(.text) refers to _printf_fp_infnan.o(.text) for _printf_fp_infnan
    _printf_fp_dec.o(.text) refers to rt_locale_intlibspace.o(.text) for __rt_locale
    _printf_char_common.o(.text) refers to __printf_wp.o(.text) for __printf
    dnaninf.o(x$fpl$dnaninf) refers (Special) to usenofp.o(x$fpl$usenofp) for __I$use$fp
    dretinf.o(x$fpl$dretinf) refers (Special) to usenofp.o(x$fpl$usenofp) for __I$use$fp
    fnaninf.o(x$fpl$fnaninf) refers (Special) to usenofp.o(x$fpl$usenofp) for __I$use$fp
    fretinf.o(x$fpl$fretinf) refers (Special) to usenofp.o(x$fpl$usenofp) for __I$use$fp
    __rtentry2.o(.ARM.Collect$$rtentry$$00000008) refers to boardinit2.o(.text) for _platform_post_stackheap_init
    __rtentry2.o(.ARM.Collect$$rtentry$$0000000A) refers to libinit.o(.ARM.Collect$$libinit$$00000000) for __rt_lib_init
    __rtentry2.o(.ARM.Collect$$rtentry$$0000000B) refers to boardinit3.o(.text) for _platform_post_lib_init
    __rtentry2.o(.ARM.Collect$$rtentry$$0000000D) refers to main.o(i.main) for main
    __rtentry2.o(.ARM.Collect$$rtentry$$0000000D) refers to exit.o(.text) for exit
    __rtentry2.o(.ARM.exidx) refers to __rtentry2.o(.ARM.Collect$$rtentry$$00000001) for .ARM.Collect$$rtentry$$00000001
    __rtentry2.o(.ARM.exidx) refers to __rtentry2.o(.ARM.Collect$$rtentry$$00000008) for .ARM.Collect$$rtentry$$00000008
    __rtentry2.o(.ARM.exidx) refers to __rtentry2.o(.ARM.Collect$$rtentry$$0000000A) for .ARM.Collect$$rtentry$$0000000A
    __rtentry2.o(.ARM.exidx) refers to __rtentry2.o(.ARM.Collect$$rtentry$$0000000B) for .ARM.Collect$$rtentry$$0000000B
    __rtentry2.o(.ARM.exidx) refers to __rtentry2.o(.ARM.Collect$$rtentry$$0000000D) for .ARM.Collect$$rtentry$$0000000D
    __rtentry4.o(.ARM.Collect$$rtentry$$00000004) refers to sys_stackheap_outer.o(.text) for __user_setup_stackheap
    __rtentry4.o(.ARM.exidx) refers to __rtentry4.o(.ARM.Collect$$rtentry$$00000004) for .ARM.Collect$$rtentry$$00000004
    rt_locale.o(.text) refers to rt_locale.o(.bss) for __rt_locale_data
    rt_locale_intlibspace.o(.text) refers to libspace.o(.bss) for __libspace_start
    bigflt0.o(.text) refers (Special) to usenofp.o(x$fpl$usenofp) for __I$use$fp
    bigflt0.o(.text) refers to btod.o(CL$$btod_emul) for _btod_emul
    bigflt0.o(.text) refers to btod.o(CL$$btod_ediv) for _btod_ediv
    bigflt0.o(.text) refers to bigflt0.o(.constdata) for .constdata
    bigflt0.o(.constdata) refers (Special) to usenofp.o(x$fpl$usenofp) for __I$use$fp
    btod.o(CL$$btod_d2e) refers (Special) to usenofp.o(x$fpl$usenofp) for __I$use$fp
    btod.o(CL$$btod_d2e) refers to btod.o(CL$$btod_d2e_norm_op1) for _d2e_norm_op1
    btod.o(CL$$btod_d2e_norm_op1) refers (Special) to usenofp.o(x$fpl$usenofp) for __I$use$fp
    btod.o(CL$$btod_d2e_norm_op1) refers to btod.o(CL$$btod_d2e_denorm_low) for _d2e_denorm_low
    btod.o(CL$$btod_d2e_denorm_low) refers (Special) to usenofp.o(x$fpl$usenofp) for __I$use$fp
    btod.o(CL$$btod_emul) refers (Special) to usenofp.o(x$fpl$usenofp) for __I$use$fp
    btod.o(CL$$btod_emul) refers to btod.o(CL$$btod_mult_common) for __btod_mult_common
    btod.o(CL$$btod_emul) refers to btod.o(CL$$btod_e2e) for _e2e
    btod.o(CL$$btod_ediv) refers (Special) to usenofp.o(x$fpl$usenofp) for __I$use$fp
    btod.o(CL$$btod_ediv) refers to btod.o(CL$$btod_div_common) for __btod_div_common
    btod.o(CL$$btod_ediv) refers to btod.o(CL$$btod_e2e) for _e2e
    btod.o(CL$$btod_emuld) refers (Special) to usenofp.o(x$fpl$usenofp) for __I$use$fp
    btod.o(CL$$btod_emuld) refers to btod.o(CL$$btod_mult_common) for __btod_mult_common
    btod.o(CL$$btod_emuld) refers to btod.o(CL$$btod_e2d) for _e2d
    btod.o(CL$$btod_edivd) refers (Special) to usenofp.o(x$fpl$usenofp) for __I$use$fp
    btod.o(CL$$btod_edivd) refers to btod.o(CL$$btod_div_common) for __btod_div_common
    btod.o(CL$$btod_edivd) refers to btod.o(CL$$btod_e2d) for _e2d
    btod.o(CL$$btod_e2e) refers (Special) to usenofp.o(x$fpl$usenofp) for __I$use$fp
    btod.o(CL$$btod_e2d) refers (Special) to usenofp.o(x$fpl$usenofp) for __I$use$fp
    btod.o(CL$$btod_e2d) refers to btod.o(CL$$btod_e2e) for _e2e
    btod.o(CL$$btod_mult_common) refers (Special) to usenofp.o(x$fpl$usenofp) for __I$use$fp
    btod.o(CL$$btod_div_common) refers (Special) to usenofp.o(x$fpl$usenofp) for __I$use$fp
    lc_numeric_c.o(locale$$data) refers (Special) to libinit2.o(.ARM.Collect$$libinit$$00000016) for __rt_lib_init_lc_numeric_2
    lc_numeric_c.o(locale$$code) refers (Special) to libinit2.o(.ARM.Collect$$libinit$$00000016) for __rt_lib_init_lc_numeric_2
    lc_numeric_c.o(locale$$code) refers to strcmpv7m.o(.text) for strcmp
    lc_numeric_c.o(locale$$code) refers to lc_numeric_c.o(locale$$data) for __lcnum_c_name
    istatus.o(x$fpl$ieeestatus) refers (Special) to usenofp.o(x$fpl$usenofp) for __I$use$fp
    fpclassify.o(i.__ARM_fpclassify) refers (Special) to usenofp.o(x$fpl$usenofp) for __I$use$fp
    libspace.o(.text) refers to libspace.o(.bss) for __libspace_start
    sys_stackheap_outer.o(.text) refers to libspace.o(.text) for __user_perproc_libspace
    sys_stackheap_outer.o(.text) refers to startup_n32g430.o(.text) for __user_initial_stackheap
    exit.o(.text) refers to rtexit.o(.ARM.Collect$$rtexit$$00000000) for __rt_exit
    libinit.o(.ARM.Collect$$libinit$$00000000) refers (Special) to libinit2.o(.ARM.Collect$$libinit$$0000002E) for __rt_lib_init_alloca_1
    libinit.o(.ARM.Collect$$libinit$$00000000) refers (Special) to libinit2.o(.ARM.Collect$$libinit$$0000002C) for __rt_lib_init_argv_1
    libinit.o(.ARM.Collect$$libinit$$00000000) refers (Special) to libinit2.o(.ARM.Collect$$libinit$$0000001B) for __rt_lib_init_atexit_1
    libinit.o(.ARM.Collect$$libinit$$00000000) refers (Special) to libinit2.o(.ARM.Collect$$libinit$$00000021) for __rt_lib_init_clock_1
    libinit.o(.ARM.Collect$$libinit$$00000000) refers (Special) to libinit2.o(.ARM.Collect$$libinit$$00000032) for __rt_lib_init_cpp_1
    libinit.o(.ARM.Collect$$libinit$$00000000) refers (Special) to libinit2.o(.ARM.Collect$$libinit$$00000030) for __rt_lib_init_exceptions_1
    libinit.o(.ARM.Collect$$libinit$$00000000) refers (Special) to libinit2.o(.ARM.Collect$$libinit$$00000001) for __rt_lib_init_fp_1
    libinit.o(.ARM.Collect$$libinit$$00000000) refers (Special) to libinit2.o(.ARM.Collect$$libinit$$0000001F) for __rt_lib_init_fp_trap_1
    libinit.o(.ARM.Collect$$libinit$$00000000) refers (Special) to libinit2.o(.ARM.Collect$$libinit$$00000023) for __rt_lib_init_getenv_1
    libinit.o(.ARM.Collect$$libinit$$00000000) refers (Special) to libinit2.o(.ARM.Collect$$libinit$$0000000A) for __rt_lib_init_heap_1
    libinit.o(.ARM.Collect$$libinit$$00000000) refers (Special) to libinit2.o(.ARM.Collect$$libinit$$00000011) for __rt_lib_init_lc_collate_1
    libinit.o(.ARM.Collect$$libinit$$00000000) refers (Special) to libinit2.o(.ARM.Collect$$libinit$$00000013) for __rt_lib_init_lc_ctype_1
    libinit.o(.ARM.Collect$$libinit$$00000000) refers (Special) to libinit2.o(.ARM.Collect$$libinit$$00000015) for __rt_lib_init_lc_monetary_1
    libinit.o(.ARM.Collect$$libinit$$00000000) refers (Special) to libinit2.o(.ARM.Collect$$libinit$$00000017) for __rt_lib_init_lc_numeric_1
    libinit.o(.ARM.Collect$$libinit$$00000000) refers (Special) to libinit2.o(.ARM.Collect$$libinit$$00000019) for __rt_lib_init_lc_time_1
    libinit.o(.ARM.Collect$$libinit$$00000000) refers (Special) to libinit2.o(.ARM.Collect$$libinit$$00000004) for __rt_lib_init_preinit_1
    libinit.o(.ARM.Collect$$libinit$$00000000) refers (Special) to libinit2.o(.ARM.Collect$$libinit$$0000000E) for __rt_lib_init_rand_1
    libinit.o(.ARM.Collect$$libinit$$00000000) refers (Special) to libinit2.o(.ARM.Collect$$libinit$$00000033) for __rt_lib_init_return
    libinit.o(.ARM.Collect$$libinit$$00000000) refers (Special) to libinit2.o(.ARM.Collect$$libinit$$0000001D) for __rt_lib_init_signal_1
    libinit.o(.ARM.Collect$$libinit$$00000000) refers (Special) to libinit2.o(.ARM.Collect$$libinit$$00000025) for __rt_lib_init_stdio_1
    libinit.o(.ARM.Collect$$libinit$$00000000) refers (Special) to libinit2.o(.ARM.Collect$$libinit$$0000000C) for __rt_lib_init_user_alloc_1
    libinit2.o(.ARM.Collect$$libinit$$00000001) refers to fpinit.o(x$fpl$fpinit) for _fp_init
    libinit2.o(.ARM.Collect$$libinit$$0000000F) refers (Weak) to rt_locale_intlibspace.o(.text) for __rt_locale
    libinit2.o(.ARM.Collect$$libinit$$00000010) refers to libinit2.o(.ARM.Collect$$libinit$$0000000F) for .ARM.Collect$$libinit$$0000000F
    libinit2.o(.ARM.Collect$$libinit$$00000012) refers to libinit2.o(.ARM.Collect$$libinit$$0000000F) for .ARM.Collect$$libinit$$0000000F
    libinit2.o(.ARM.Collect$$libinit$$00000014) refers to libinit2.o(.ARM.Collect$$libinit$$0000000F) for .ARM.Collect$$libinit$$0000000F
    libinit2.o(.ARM.Collect$$libinit$$00000016) refers to libinit2.o(.ARM.Collect$$libinit$$0000000F) for .ARM.Collect$$libinit$$0000000F
    libinit2.o(.ARM.Collect$$libinit$$00000016) refers (Weak) to lc_numeric_c.o(locale$$code) for _get_lc_numeric
    libinit2.o(.ARM.Collect$$libinit$$00000018) refers to libinit2.o(.ARM.Collect$$libinit$$0000000F) for .ARM.Collect$$libinit$$0000000F
    libinit2.o(.ARM.Collect$$libinit$$00000026) refers to argv_veneer.o(.emb_text) for __ARM_argv_veneer
    libinit2.o(.ARM.Collect$$libinit$$00000027) refers to argv_veneer.o(.emb_text) for __ARM_argv_veneer
    rtexit.o(.ARM.Collect$$rtexit$$00000000) refers (Special) to rtexit2.o(.ARM.Collect$$rtexit$$00000004) for __rt_exit_exit
    rtexit.o(.ARM.Collect$$rtexit$$00000000) refers (Special) to rtexit2.o(.ARM.Collect$$rtexit$$00000003) for __rt_exit_ls
    rtexit.o(.ARM.Collect$$rtexit$$00000000) refers (Special) to rtexit2.o(.ARM.Collect$$rtexit$$00000002) for __rt_exit_prels_1
    rtexit.o(.ARM.exidx) refers (Special) to rtexit2.o(.ARM.Collect$$rtexit$$00000004) for __rt_exit_exit
    rtexit.o(.ARM.exidx) refers (Special) to rtexit2.o(.ARM.Collect$$rtexit$$00000003) for __rt_exit_ls
    rtexit.o(.ARM.exidx) refers (Special) to rtexit2.o(.ARM.Collect$$rtexit$$00000002) for __rt_exit_prels_1
    rtexit.o(.ARM.exidx) refers to rtexit.o(.ARM.Collect$$rtexit$$00000000) for .ARM.Collect$$rtexit$$00000000
    argv_veneer.o(.emb_text) refers to no_argv.o(.text) for __ARM_get_argv
    rtexit2.o(.ARM.Collect$$rtexit$$00000003) refers to libshutdown.o(.ARM.Collect$$libshutdown$$00000000) for __rt_lib_shutdown
    rtexit2.o(.ARM.Collect$$rtexit$$00000004) refers to sys_exit.o(.text) for _sys_exit
    rtexit2.o(.ARM.exidx) refers to rtexit2.o(.ARM.Collect$$rtexit$$00000001) for .ARM.Collect$$rtexit$$00000001
    rtexit2.o(.ARM.exidx) refers to rtexit2.o(.ARM.Collect$$rtexit$$00000003) for .ARM.Collect$$rtexit$$00000003
    rtexit2.o(.ARM.exidx) refers to rtexit2.o(.ARM.Collect$$rtexit$$00000004) for .ARM.Collect$$rtexit$$00000004
    _get_argv_nomalloc.o(.text) refers (Special) to hrguard.o(.text) for __heap_region$guard
    _get_argv_nomalloc.o(.text) refers to defsig_rtmem_outer.o(.text) for __rt_SIGRTMEM
    _get_argv_nomalloc.o(.text) refers to sys_command.o(.text) for _sys_command_string
    sys_command.o(.text) refers (Special) to use_no_semi.o(.text) for __I$use$semihosting
    sys_command.o(.text) refers (Special) to indicate_semi.o(.text) for __semihosting_library_function
    sys_exit.o(.text) refers (Special) to use_no_semi.o(.text) for __I$use$semihosting
    sys_exit.o(.text) refers (Special) to indicate_semi.o(.text) for __semihosting_library_function
    defsig_rtmem_outer.o(.text) refers to defsig_rtmem_inner.o(.text) for __rt_SIGRTMEM_inner
    defsig_rtmem_outer.o(.text) refers to defsig_exit.o(.text) for __sig_exit
    defsig_rtmem_formal.o(.text) refers to rt_raise.o(.text) for __rt_raise
    libshutdown.o(.ARM.Collect$$libshutdown$$00000000) refers (Special) to libshutdown2.o(.ARM.Collect$$libshutdown$$00000002) for __rt_lib_shutdown_cpp_1
    libshutdown.o(.ARM.Collect$$libshutdown$$00000000) refers (Special) to libshutdown2.o(.ARM.Collect$$libshutdown$$00000007) for __rt_lib_shutdown_fp_trap_1
    libshutdown.o(.ARM.Collect$$libshutdown$$00000000) refers (Special) to libshutdown2.o(.ARM.Collect$$libshutdown$$0000000F) for __rt_lib_shutdown_heap_1
    libshutdown.o(.ARM.Collect$$libshutdown$$00000000) refers (Special) to libshutdown2.o(.ARM.Collect$$libshutdown$$00000010) for __rt_lib_shutdown_return
    libshutdown.o(.ARM.Collect$$libshutdown$$00000000) refers (Special) to libshutdown2.o(.ARM.Collect$$libshutdown$$0000000A) for __rt_lib_shutdown_signal_1
    libshutdown.o(.ARM.Collect$$libshutdown$$00000000) refers (Special) to libshutdown2.o(.ARM.Collect$$libshutdown$$00000004) for __rt_lib_shutdown_stdio_1
    libshutdown.o(.ARM.Collect$$libshutdown$$00000000) refers (Special) to libshutdown2.o(.ARM.Collect$$libshutdown$$0000000C) for __rt_lib_shutdown_user_alloc_1
    rt_raise.o(.text) refers to __raise.o(.text) for __raise
    rt_raise.o(.text) refers to sys_exit.o(.text) for _sys_exit
    defsig_exit.o(.text) refers to sys_exit.o(.text) for _sys_exit
    defsig_rtmem_inner.o(.text) refers to defsig_general.o(.text) for __default_signal_display
    __raise.o(.text) refers to defsig.o(CL$$defsig) for __default_signal_handler
    defsig_general.o(.text) refers to sys_wrch.o(.text) for _ttywrch
    sys_wrch.o(.text) refers (Special) to use_no_semi.o(.text) for __I$use$semihosting
    sys_wrch.o(.text) refers (Special) to indicate_semi.o(.text) for __semihosting_library_function
    defsig.o(CL$$defsig) refers to defsig_rtmem_inner.o(.text) for __rt_SIGRTMEM_inner
    defsig_abrt_inner.o(.text) refers to defsig_general.o(.text) for __default_signal_display
    defsig_fpe_inner.o(.text) refers to defsig_general.o(.text) for __default_signal_display
    defsig_rtred_inner.o(.text) refers to defsig_general.o(.text) for __default_signal_display
    defsig_stak_inner.o(.text) refers to defsig_general.o(.text) for __default_signal_display
    defsig_pvfn_inner.o(.text) refers to defsig_general.o(.text) for __default_signal_display
    defsig_cppl_inner.o(.text) refers to defsig_general.o(.text) for __default_signal_display
    defsig_segv_inner.o(.text) refers to defsig_general.o(.text) for __default_signal_display
    defsig_other.o(.text) refers to defsig_general.o(.text) for __default_signal_display


==============================================================================

Removing Unused input sections from the image.

    Removing bsp_delay.o(.rev16_text), (4 bytes).
    Removing bsp_delay.o(.revsh_text), (4 bytes).
    Removing bsp_delay.o(.rrx_text), (6 bytes).
    Removing misc.o(.rev16_text), (4 bytes).
    Removing misc.o(.revsh_text), (4 bytes).
    Removing misc.o(.rrx_text), (6 bytes).
    Removing misc.o(i.NVIC_Priority_Group_Set), (20 bytes).
    Removing misc.o(i.NVIC_System_LowPower_Enable), (16 bytes).
    Removing misc.o(i.NVIC_System_Low_Power_Disable), (16 bytes).
    Removing misc.o(i.NVIC_Vector_Table_Set), (20 bytes).
    Removing misc.o(i.SysTick_Clock_Source_Set), (40 bytes).
    Removing n32g430_adc.o(.rev16_text), (4 bytes).
    Removing n32g430_adc.o(.revsh_text), (4 bytes).
    Removing n32g430_adc.o(.rrx_text), (6 bytes).
    Removing n32g430_adc.o(i.ADC_Analog_Watchdog_Disable), (16 bytes).
    Removing n32g430_adc.o(i.ADC_Analog_Watchdog_Enable), (16 bytes).
    Removing n32g430_adc.o(i.ADC_Analog_Watchdog_HighThresholds_Config), (12 bytes).
    Removing n32g430_adc.o(i.ADC_Analog_Watchdog_LowThresholds_Config), (12 bytes).
    Removing n32g430_adc.o(i.ADC_Analog_Watchdog_Mode_Channel_Config), (56 bytes).
    Removing n32g430_adc.o(i.ADC_Bypass_Calibration_Disable), (20 bytes).
    Removing n32g430_adc.o(i.ADC_Bypass_Calibration_Enable), (20 bytes).
    Removing n32g430_adc.o(i.ADC_Calibration_Auto_Load_Disable), (20 bytes).
    Removing n32g430_adc.o(i.ADC_Calibration_Auto_Load_Enable), (20 bytes).
    Removing n32g430_adc.o(i.ADC_DMA_Transfer_Disable), (20 bytes).
    Removing n32g430_adc.o(i.ADC_Data_Resolution_Config), (28 bytes).
    Removing n32g430_adc.o(i.ADC_Deep_Power_Mode_Disable), (20 bytes).
    Removing n32g430_adc.o(i.ADC_Deep_Power_Mode_Enable), (20 bytes).
    Removing n32g430_adc.o(i.ADC_Differential_Channels_Config), (32 bytes).
    Removing n32g430_adc.o(i.ADC_Differential_Mode_Disable), (20 bytes).
    Removing n32g430_adc.o(i.ADC_Differential_Mode_Enable), (20 bytes).
    Removing n32g430_adc.o(i.ADC_Discontinuous_Mode_Channel_Count_Config), (28 bytes).
    Removing n32g430_adc.o(i.ADC_Discontinuous_Mode_Config), (80 bytes).
    Removing n32g430_adc.o(i.ADC_External_Trigger_Conversion_Config), (80 bytes).
    Removing n32g430_adc.o(i.ADC_INTFlag_Status_Clear), (16 bytes).
    Removing n32g430_adc.o(i.ADC_INTFlag_Status_Get), (24 bytes).
    Removing n32g430_adc.o(i.ADC_Initializes_Ex), (134 bytes).
    Removing n32g430_adc.o(i.ADC_Initializes_Structure), (14 bytes).
    Removing n32g430_adc.o(i.ADC_Initializes_StructureEx), (26 bytes).
    Removing n32g430_adc.o(i.ADC_Injected_Channels_Number_Config), (28 bytes).
    Removing n32g430_adc.o(i.ADC_Injected_Channels_Offset_Config), (28 bytes).
    Removing n32g430_adc.o(i.ADC_Injected_Channels_Software_Conversion_Operation), (72 bytes).
    Removing n32g430_adc.o(i.ADC_Injected_Group_Autoconversion_Disable), (20 bytes).
    Removing n32g430_adc.o(i.ADC_Injected_Group_Autoconversion_Enable), (20 bytes).
    Removing n32g430_adc.o(i.ADC_Injected_Group_Conversion_Data_Get), (36 bytes).
    Removing n32g430_adc.o(i.ADC_Injected_Group_External_Trigger_Source_Config), (28 bytes).
    Removing n32g430_adc.o(i.ADC_Injected_Sequence_Conversion_Number_Config), (44 bytes).
    Removing n32g430_adc.o(i.ADC_Interrupts_Disable), (36 bytes).
    Removing n32g430_adc.o(i.ADC_Interrupts_Enable), (36 bytes).
    Removing n32g430_adc.o(i.ADC_OFF), (20 bytes).
    Removing n32g430_adc.o(i.ADC_Regular_Group_Conversion_Data_Get), (12 bytes).
    Removing n32g430_adc.o(i.ADC_Reset), (12 bytes).
    Removing n32g430_adc.o(i.ADC_Sample_Time_Level_Config), (28 bytes).
    Removing n32g430_adc.o(i.ADC_Temperature_Sensor_And_Vrefint_Channel_Disable), (40 bytes).
    Removing n32g430_adc.o(i.ADC_Vbat_Monitor_Disable), (40 bytes).
    Removing n32g430_adc.o(i.ADC_Vbat_Monitor_Enable), (40 bytes).
    Removing n32g430_adc.o(i.ADC_Vrefint_Get), (32 bytes).
    Removing n32g430_adc.o(.data), (12 bytes).
    Removing n32g430_beeper.o(.rev16_text), (4 bytes).
    Removing n32g430_beeper.o(.revsh_text), (4 bytes).
    Removing n32g430_beeper.o(.rrx_text), (6 bytes).
    Removing n32g430_beeper.o(i.BEEPER_APB_Clock_Prescale_Set), (28 bytes).
    Removing n32g430_beeper.o(i.BEEPER_Bypass_Clock_Signal), (20 bytes).
    Removing n32g430_beeper.o(i.BEEPER_Clock_Select), (28 bytes).
    Removing n32g430_beeper.o(i.BEEPER_Disable), (20 bytes).
    Removing n32g430_beeper.o(i.BEEPER_Div_Factor_Select), (32 bytes).
    Removing n32g430_beeper.o(i.BEEPER_Enable), (20 bytes).
    Removing n32g430_beeper.o(i.BEEPER_Initialize), (28 bytes).
    Removing n32g430_beeper.o(i.BEEPER_Inverted_Disable), (20 bytes).
    Removing n32g430_beeper.o(i.BEEPER_Inverted_Enable), (20 bytes).
    Removing n32g430_beeper.o(i.BEEPER_Reset), (10 bytes).
    Removing n32g430_can.o(.rev16_text), (4 bytes).
    Removing n32g430_can.o(.revsh_text), (4 bytes).
    Removing n32g430_can.o(.rrx_text), (6 bytes).
    Removing n32g430_can.o(i.CAN_Arbitration_Lost_Status_Get), (80 bytes).
    Removing n32g430_can.o(i.CAN_Bit_Timing_Set), (32 bytes).
    Removing n32g430_can.o(i.CAN_Bus_Off_Disable), (10 bytes).
    Removing n32g430_can.o(i.CAN_Bus_Off_Enable), (10 bytes).
    Removing n32g430_can.o(i.CAN_Config_Interrupt_Disable), (8 bytes).
    Removing n32g430_can.o(i.CAN_Config_Interrupt_Enable), (8 bytes).
    Removing n32g430_can.o(i.CAN_DATA_FIFO_Receive_Lock_Disable), (10 bytes).
    Removing n32g430_can.o(i.CAN_DATA_FIFO_Receive_Lock_Enable), (10 bytes).
    Removing n32g430_can.o(i.CAN_DATA_FIFO_Transmit_Priority_Disable), (10 bytes).
    Removing n32g430_can.o(i.CAN_DATA_FIFO_Transmit_Priority_Enable), (10 bytes).
    Removing n32g430_can.o(i.CAN_Debug_Freeze_Disable), (10 bytes).
    Removing n32g430_can.o(i.CAN_Debug_Freeze_Enable), (10 bytes).
    Removing n32g430_can.o(i.CAN_FIFO_Release), (22 bytes).
    Removing n32g430_can.o(i.CAN_Filter_Activate), (16 bytes).
    Removing n32g430_can.o(i.CAN_Filter_DATA_FIFO_Assign), (32 bytes).
    Removing n32g430_can.o(i.CAN_Filter_Deactivation), (16 bytes).
    Removing n32g430_can.o(i.CAN_Filter_Initializes), (74 bytes).
    Removing n32g430_can.o(i.CAN_Filter_Initializes_Disable), (20 bytes).
    Removing n32g430_can.o(i.CAN_Filter_Initializes_Enable), (20 bytes).
    Removing n32g430_can.o(i.CAN_Filter_Mode_Set), (32 bytes).
    Removing n32g430_can.o(i.CAN_Filter_Scale_16bit_Set), (60 bytes).
    Removing n32g430_can.o(i.CAN_Filter_Scale_32bit_Set), (64 bytes).
    Removing n32g430_can.o(i.CAN_Flag_Lowest_Priority_Get), (80 bytes).
    Removing n32g430_can.o(i.CAN_Flag_Status_Clear), (56 bytes).
    Removing n32g430_can.o(i.CAN_Flag_Transmit_Mailbox_Empty_Get), (80 bytes).
    Removing n32g430_can.o(i.CAN_Flag_status_Get), (116 bytes).
    Removing n32g430_can.o(i.CAN_Initializes), (208 bytes).
    Removing n32g430_can.o(i.CAN_Initializes_Disable), (10 bytes).
    Removing n32g430_can.o(i.CAN_Initializes_Enable), (10 bytes).
    Removing n32g430_can.o(i.CAN_Initializes_Leave_Wait), (24 bytes).
    Removing n32g430_can.o(i.CAN_Initializes_Wait), (24 bytes).
    Removing n32g430_can.o(i.CAN_Interrupt_Status_Clear), (168 bytes).
    Removing n32g430_can.o(i.CAN_Interrupt_Status_Get), (288 bytes).
    Removing n32g430_can.o(i.CAN_LSB_Transmit_Error_Counter_Get), (12 bytes).
    Removing n32g430_can.o(i.CAN_Last_Error_Code_Get), (12 bytes).
    Removing n32g430_can.o(i.CAN_Last_Sample_Point_Get), (18 bytes).
    Removing n32g430_can.o(i.CAN_Mailbox_Code_Get), (50 bytes).
    Removing n32g430_can.o(i.CAN_Message_Pending_Get), (30 bytes).
    Removing n32g430_can.o(i.CAN_Message_Receive), (228 bytes).
    Removing n32g430_can.o(i.CAN_No_Retransmission_Disable), (10 bytes).
    Removing n32g430_can.o(i.CAN_No_Retransmission_Enable), (10 bytes).
    Removing n32g430_can.o(i.CAN_Operating_Mode_Select), (162 bytes).
    Removing n32g430_can.o(i.CAN_Receive_Error_Counter_Get), (10 bytes).
    Removing n32g430_can.o(i.CAN_Receive_Mode_Get), (18 bytes).
    Removing n32g430_can.o(i.CAN_Receive_Signal_Get), (18 bytes).
    Removing n32g430_can.o(i.CAN_Reset), (14 bytes).
    Removing n32g430_can.o(i.CAN_Sleep_Mode_Enter), (32 bytes).
    Removing n32g430_can.o(i.CAN_Sleep_Mode_Exit), (10 bytes).
    Removing n32g430_can.o(i.CAN_Software_Reset), (10 bytes).
    Removing n32g430_can.o(i.CAN_Structure_Initializes), (32 bytes).
    Removing n32g430_can.o(i.CAN_Time_Stamp_Sent_Disable), (58 bytes).
    Removing n32g430_can.o(i.CAN_Time_Stamp_Sent_Enable), (58 bytes).
    Removing n32g430_can.o(i.CAN_Time_Trigger_Mode_Disable), (10 bytes).
    Removing n32g430_can.o(i.CAN_Time_Trigger_Mode_Enable), (10 bytes).
    Removing n32g430_can.o(i.CAN_Transmit_Enable), (26 bytes).
    Removing n32g430_can.o(i.CAN_Transmit_Fail_Status_Get), (80 bytes).
    Removing n32g430_can.o(i.CAN_Transmit_Message_Cancel), (40 bytes).
    Removing n32g430_can.o(i.CAN_Transmit_Message_DLC_Config), (54 bytes).
    Removing n32g430_can.o(i.CAN_Transmit_Message_Data_Config), (64 bytes).
    Removing n32g430_can.o(i.CAN_Transmit_Message_ID_Config), (98 bytes).
    Removing n32g430_can.o(i.CAN_Transmit_Message_initializes), (102 bytes).
    Removing n32g430_can.o(i.CAN_Transmit_Mode_Get), (18 bytes).
    Removing n32g430_can.o(i.CAN_Transmit_Status_Get), (160 bytes).
    Removing n32g430_can.o(i.CAN_Wake_Up_Enable), (50 bytes).
    Removing n32g430_can.o(i.CAN_Wake_Up_Mode_Disable), (10 bytes).
    Removing n32g430_can.o(i.CAN_Wake_Up_Mode_Enable), (10 bytes).
    Removing n32g430_can.o(i.Interrupt_Status_Check), (16 bytes).
    Removing n32g430_comp.o(.rev16_text), (4 bytes).
    Removing n32g430_comp.o(.revsh_text), (4 bytes).
    Removing n32g430_comp.o(.rrx_text), (6 bytes).
    Removing n32g430_comp.o(i.COMP2_Output_Xor_Disable), (12 bytes).
    Removing n32g430_comp.o(i.COMP2_Output_Xor_Enable), (12 bytes).
    Removing n32g430_comp.o(i.COMP_Blking_Soucre_Config), (96 bytes).
    Removing n32g430_comp.o(i.COMP_Filter_Clock_Prescale_Config), (84 bytes).
    Removing n32g430_comp.o(i.COMP_Filter_Control_Config), (46 bytes).
    Removing n32g430_comp.o(i.COMP_Filter_Disable), (72 bytes).
    Removing n32g430_comp.o(i.COMP_Filter_Enable), (64 bytes).
    Removing n32g430_comp.o(i.COMP_Filter_SampWindow_Config), (108 bytes).
    Removing n32g430_comp.o(i.COMP_Filter_Threshold_Config), (108 bytes).
    Removing n32g430_comp.o(i.COMP_Hysteresis_Level_Config), (96 bytes).
    Removing n32g430_comp.o(i.COMP_Initializes), (120 bytes).
    Removing n32g430_comp.o(i.COMP_Initializes_Structure), (26 bytes).
    Removing n32g430_comp.o(i.COMP_InmSel_Config), (96 bytes).
    Removing n32g430_comp.o(i.COMP_InpSel_Config), (96 bytes).
    Removing n32g430_comp.o(i.COMP_Interrupt_Disable), (16 bytes).
    Removing n32g430_comp.o(i.COMP_Interrupt_Enable), (16 bytes).
    Removing n32g430_comp.o(i.COMP_Interrupt_Status_Get), (12 bytes).
    Removing n32g430_comp.o(i.COMP_Interrupt_Status_OneComp_Clear), (16 bytes).
    Removing n32g430_comp.o(i.COMP_Interrupt_Status_OneComp_Get), (28 bytes).
    Removing n32g430_comp.o(i.COMP_Lock_Config), (16 bytes).
    Removing n32g430_comp.o(i.COMP_LowPower_Clock_Select), (28 bytes).
    Removing n32g430_comp.o(i.COMP_OFF), (72 bytes).
    Removing n32g430_comp.o(i.COMP_ON), (72 bytes).
    Removing n32g430_comp.o(i.COMP_Output_Polarity_Config), (96 bytes).
    Removing n32g430_comp.o(i.COMP_Output_Status_Get), (48 bytes).
    Removing n32g430_comp.o(i.COMP_Output_Trigger_Config), (96 bytes).
    Removing n32g430_comp.o(i.COMP_Reset), (16 bytes).
    Removing n32g430_comp.o(i.COMP_Voltage_Reference_Config), (92 bytes).
    Removing n32g430_comp.o(i.COMP_Window_Mode_Disable), (12 bytes).
    Removing n32g430_comp.o(i.COMP_Window_Mode_Enable), (12 bytes).
    Removing n32g430_crc.o(.rev16_text), (4 bytes).
    Removing n32g430_crc.o(.revsh_text), (4 bytes).
    Removing n32g430_crc.o(.rrx_text), (6 bytes).
    Removing n32g430_crc.o(i.CRC16_Big_Endian_Format_Set), (20 bytes).
    Removing n32g430_crc.o(i.CRC16_Buffer_Calculate), (40 bytes).
    Removing n32g430_crc.o(i.CRC16_Calculate), (16 bytes).
    Removing n32g430_crc.o(i.CRC16_Get), (12 bytes).
    Removing n32g430_crc.o(i.CRC16_Little_Endian_Format_Set), (20 bytes).
    Removing n32g430_crc.o(i.CRC16_Set), (12 bytes).
    Removing n32g430_crc.o(i.CRC16_Value_Clean_Disable), (20 bytes).
    Removing n32g430_crc.o(i.CRC16_Value_Clean_Enable), (20 bytes).
    Removing n32g430_crc.o(i.CRC32_Buffer_Calculate), (36 bytes).
    Removing n32g430_crc.o(i.CRC32_Calculate), (16 bytes).
    Removing n32g430_crc.o(i.CRC32_Get), (12 bytes).
    Removing n32g430_crc.o(i.CRC32_Independent_Data_Get), (12 bytes).
    Removing n32g430_crc.o(i.CRC32_Independent_Data_Save), (12 bytes).
    Removing n32g430_crc.o(i.CRC32_Reset), (12 bytes).
    Removing n32g430_crc.o(i.CRC_LRC_Get), (12 bytes).
    Removing n32g430_crc.o(i.CRC_LRC_Set), (12 bytes).
    Removing n32g430_dbg.o(.rev16_text), (4 bytes).
    Removing n32g430_dbg.o(.revsh_text), (4 bytes).
    Removing n32g430_dbg.o(.rrx_text), (6 bytes).
    Removing n32g430_dbg.o(i.DBG_Device_Number_Get), (24 bytes).
    Removing n32g430_dbg.o(i.DBG_Peripheral_OFF), (16 bytes).
    Removing n32g430_dbg.o(i.DBG_Peripheral_ON), (16 bytes).
    Removing n32g430_dbg.o(i.DBG_Revision_Number_Get), (12 bytes).
    Removing n32g430_dbg.o(i.UCID_Get), (68 bytes).
    Removing n32g430_dbg.o(i.UID_Get), (68 bytes).
    Removing n32g430_dma.o(.rev16_text), (4 bytes).
    Removing n32g430_dma.o(.revsh_text), (4 bytes).
    Removing n32g430_dma.o(.rrx_text), (6 bytes).
    Removing n32g430_dma.o(i.DMA_Channel_Disable), (10 bytes).
    Removing n32g430_dma.o(i.DMA_Current_Data_Transfer_Number_Get), (8 bytes).
    Removing n32g430_dma.o(i.DMA_Current_Data_Transfer_Number_Set), (4 bytes).
    Removing n32g430_dma.o(i.DMA_Flag_Status_Clear), (4 bytes).
    Removing n32g430_dma.o(i.DMA_Flag_Status_Get), (16 bytes).
    Removing n32g430_dma.o(i.DMA_Interrupt_Status_Clear), (4 bytes).
    Removing n32g430_dma.o(i.DMA_Interrupt_Status_Get), (16 bytes).
    Removing n32g430_dma.o(i.DMA_Interrupts_Disable), (8 bytes).
    Removing n32g430_dma.o(i.DMA_Interrupts_Enable), (8 bytes).
    Removing n32g430_dma.o(i.DMA_Reset), (228 bytes).
    Removing n32g430_exti.o(.rev16_text), (4 bytes).
    Removing n32g430_exti.o(.revsh_text), (4 bytes).
    Removing n32g430_exti.o(.rrx_text), (6 bytes).
    Removing n32g430_exti.o(i.EXTI_Flag_Status_Clear), (12 bytes).
    Removing n32g430_exti.o(i.EXTI_Flag_Status_Get), (24 bytes).
    Removing n32g430_exti.o(i.EXTI_Interrupt_Status_Clear), (12 bytes).
    Removing n32g430_exti.o(i.EXTI_Interrupt_Status_Get), (32 bytes).
    Removing n32g430_exti.o(i.EXTI_LineCmd_Disable), (24 bytes).
    Removing n32g430_exti.o(i.EXTI_Peripheral_Initializes), (32 bytes).
    Removing n32g430_exti.o(i.EXTI_RTC_Time_Stamp_Select), (24 bytes).
    Removing n32g430_exti.o(i.EXTI_Reset), (36 bytes).
    Removing n32g430_exti.o(i.EXTI_Software_Interrupt_Trigger), (16 bytes).
    Removing n32g430_exti.o(i.EXTI_Structure_Initializes), (16 bytes).
    Removing n32g430_exti.o(i.EXTI_Trigger_Config), (72 bytes).
    Removing n32g430_exti.o(i.EXTI_Work_Mode_Config), (44 bytes).
    Removing n32g430_flash.o(.rev16_text), (4 bytes).
    Removing n32g430_flash.o(.revsh_text), (4 bytes).
    Removing n32g430_flash.o(.rrx_text), (6 bytes).
    Removing n32g430_flash.o(i.FLASH_Cache_LOCK_Cancel), (24 bytes).
    Removing n32g430_flash.o(i.FLASH_Cache_LOCK_Start), (28 bytes).
    Removing n32g430_flash.o(i.FLASH_Cache_LOCK_Status_Get), (24 bytes).
    Removing n32g430_flash.o(i.FLASH_Cache_LOCK_Stop), (16 bytes).
    Removing n32g430_flash.o(i.FLASH_Flag_Status_Get), (24 bytes).
    Removing n32g430_flash.o(i.FLASH_ICache_Disable), (20 bytes).
    Removing n32g430_flash.o(i.FLASH_ICache_Enable), (20 bytes).
    Removing n32g430_flash.o(i.FLASH_ICache_Reset), (20 bytes).
    Removing n32g430_flash.o(i.FLASH_ICache_Status_Get), (24 bytes).
    Removing n32g430_flash.o(i.FLASH_Interrupt_Disable), (16 bytes).
    Removing n32g430_flash.o(i.FLASH_Interrupt_Enable), (16 bytes).
    Removing n32g430_flash.o(i.FLASH_Latency_Get), (16 bytes).
    Removing n32g430_flash.o(i.FLASH_Mass_Erase), (76 bytes).
    Removing n32g430_flash.o(i.FLASH_Option_Bytes2_User_Get), (24 bytes).
    Removing n32g430_flash.o(i.FLASH_Option_Bytes_DATA_Program), (96 bytes).
    Removing n32g430_flash.o(i.FLASH_Option_Bytes_Data0_Get), (16 bytes).
    Removing n32g430_flash.o(i.FLASH_Option_Bytes_Data1_Get), (16 bytes).
    Removing n32g430_flash.o(i.FLASH_Option_Bytes_Erase), (120 bytes).
    Removing n32g430_flash.o(i.FLASH_Option_Bytes_Flag_Get), (24 bytes).
    Removing n32g430_flash.o(i.FLASH_Option_Bytes_User2_RDP2_Program), (116 bytes).
    Removing n32g430_flash.o(i.FLASH_Option_Bytes_User_Get), (12 bytes).
    Removing n32g430_flash.o(i.FLASH_Option_Bytes_User_RDP1_Program), (140 bytes).
    Removing n32g430_flash.o(i.FLASH_Option_Bytes_Write_Protection_Get), (12 bytes).
    Removing n32g430_flash.o(i.FLASH_Prefetch_Buffer_Disable), (20 bytes).
    Removing n32g430_flash.o(i.FLASH_Prefetch_Buffer_Enable), (20 bytes).
    Removing n32g430_flash.o(i.FLASH_Prefetch_Buffer_Status_Get), (24 bytes).
    Removing n32g430_flash.o(i.FLASH_Read_Out_Protection_L1_Disable), (176 bytes).
    Removing n32g430_flash.o(i.FLASH_Read_Out_Protection_L1_Enable), (176 bytes).
    Removing n32g430_flash.o(i.FLASH_Read_Out_Protection_L2_Enable), (216 bytes).
    Removing n32g430_flash.o(i.FLASH_Read_Out_Protection_L2_Status_Get), (24 bytes).
    Removing n32g430_flash.o(i.FLASH_Read_Out_Protection_Status_Get), (24 bytes).
    Removing n32g430_flash.o(i.FLASH_Write_Protection_Enable), (120 bytes).
    Removing n32g430_flash.o(i.Option_Bytes_Lock), (20 bytes).
    Removing n32g430_flash.o(i.Option_Bytes_Lock_Status_Get), (24 bytes).
    Removing n32g430_flash.o(i.Option_Bytes_Unlock), (24 bytes).
    Removing n32g430_gpio.o(.rev16_text), (4 bytes).
    Removing n32g430_gpio.o(.revsh_text), (4 bytes).
    Removing n32g430_gpio.o(.rrx_text), (6 bytes).
    Removing n32g430_gpio.o(i.AFIO_5V_Tolerance_Disable), (16 bytes).
    Removing n32g430_gpio.o(i.AFIO_5V_Tolerance_Enable), (16 bytes).
    Removing n32g430_gpio.o(i.AFIO_ADC_External_Trigger_Remap_Set), (80 bytes).
    Removing n32g430_gpio.o(i.AFIO_Digital_EFT_Disable), (136 bytes).
    Removing n32g430_gpio.o(i.AFIO_Digital_EFT_Enable), (136 bytes).
    Removing n32g430_gpio.o(i.AFIO_EFT_Disable), (136 bytes).
    Removing n32g430_gpio.o(i.AFIO_EFT_Enable), (136 bytes).
    Removing n32g430_gpio.o(i.AFIO_EXTI_Reset), (68 bytes).
    Removing n32g430_gpio.o(i.AFIO_Filter_Stage_Ctrl), (12 bytes).
    Removing n32g430_gpio.o(i.AFIO_SPI_NSS_Mode_Set), (32 bytes).
    Removing n32g430_gpio.o(i.GPIOA_Pin_Reset), (260 bytes).
    Removing n32g430_gpio.o(i.GPIOB_Pin_Reset), (236 bytes).
    Removing n32g430_gpio.o(i.GPIOC_Pin_Reset), (148 bytes).
    Removing n32g430_gpio.o(i.GPIOD_Pin_Reset), (200 bytes).
    Removing n32g430_gpio.o(i.GPIO_ALLPin_Reset), (36 bytes).
    Removing n32g430_gpio.o(i.GPIO_Alternate_Function_Reset), (10 bytes).
    Removing n32g430_gpio.o(i.GPIO_EXTI_Line_Set), (60 bytes).
    Removing n32g430_gpio.o(i.GPIO_Input_Data_Get), (8 bytes).
    Removing n32g430_gpio.o(i.GPIO_Output_Data_Get), (8 bytes).
    Removing n32g430_gpio.o(i.GPIO_Output_Pin_Data_Get), (16 bytes).
    Removing n32g430_gpio.o(i.GPIO_PBC_Pins_Reset), (4 bytes).
    Removing n32g430_gpio.o(i.GPIO_PBSC_Pins_Reset), (8 bytes).
    Removing n32g430_gpio.o(i.GPIO_Pin_Lock_Set), (18 bytes).
    Removing n32g430_gpio.o(i.GPIO_Pin_Remap_Set), (112 bytes).
    Removing n32g430_gpio.o(i.GPIO_Pin_Toggle), (8 bytes).
    Removing n32g430_gpio.o(i.GPIO_Reset), (84 bytes).
    Removing n32g430_gpio.o(i.GPIO_Write), (4 bytes).
    Removing n32g430_i2c.o(.rev16_text), (4 bytes).
    Removing n32g430_i2c.o(.revsh_text), (4 bytes).
    Removing n32g430_i2c.o(.rrx_text), (6 bytes).
    Removing n32g430_i2c.o(i.I2C_7bit_Addr_Send), (18 bytes).
    Removing n32g430_i2c.o(i.I2C_ARP_Disable), (10 bytes).
    Removing n32g430_i2c.o(i.I2C_ARP_Enable), (10 bytes).
    Removing n32g430_i2c.o(i.I2C_Acknowledg_Disable), (10 bytes).
    Removing n32g430_i2c.o(i.I2C_Acknowledg_Enable), (10 bytes).
    Removing n32g430_i2c.o(i.I2C_Acknowledgement_Config), (16 bytes).
    Removing n32g430_i2c.o(i.I2C_Addressing_Mode_Config), (16 bytes).
    Removing n32g430_i2c.o(i.I2C_Bus_Mode_Config), (16 bytes).
    Removing n32g430_i2c.o(i.I2C_Clock_Speed_Config), (268 bytes).
    Removing n32g430_i2c.o(i.I2C_DMA_Last_Transfer_Disable), (10 bytes).
    Removing n32g430_i2c.o(i.I2C_DMA_Last_Transfer_Enable), (10 bytes).
    Removing n32g430_i2c.o(i.I2C_DMA_Transfer_Disable), (10 bytes).
    Removing n32g430_i2c.o(i.I2C_DMA_Transfer_Enable), (10 bytes).
    Removing n32g430_i2c.o(i.I2C_Data_Recv), (8 bytes).
    Removing n32g430_i2c.o(i.I2C_Data_Send), (4 bytes).
    Removing n32g430_i2c.o(i.I2C_Dual_Addr_Disable), (10 bytes).
    Removing n32g430_i2c.o(i.I2C_Dual_Addr_Enable), (10 bytes).
    Removing n32g430_i2c.o(i.I2C_Event_Check), (40 bytes).
    Removing n32g430_i2c.o(i.I2C_Extend_Clock_Disable), (10 bytes).
    Removing n32g430_i2c.o(i.I2C_Extend_Clock_Enable), (10 bytes).
    Removing n32g430_i2c.o(i.I2C_Fast_Mode_Duty_Cycle_Set), (26 bytes).
    Removing n32g430_i2c.o(i.I2C_Flag_Status_Clear), (12 bytes).
    Removing n32g430_i2c.o(i.I2C_Flag_Status_Get), (56 bytes).
    Removing n32g430_i2c.o(i.I2C_General_Call_Disable), (10 bytes).
    Removing n32g430_i2c.o(i.I2C_General_Call_Enable), (10 bytes).
    Removing n32g430_i2c.o(i.I2C_Generate_Start_Disable), (10 bytes).
    Removing n32g430_i2c.o(i.I2C_Generate_Start_Enable), (10 bytes).
    Removing n32g430_i2c.o(i.I2C_Generate_Stop_Disable), (10 bytes).
    Removing n32g430_i2c.o(i.I2C_Generate_Stop_Enable), (10 bytes).
    Removing n32g430_i2c.o(i.I2C_Initializes), (50 bytes).
    Removing n32g430_i2c.o(i.I2C_Initializes_Structure), (30 bytes).
    Removing n32g430_i2c.o(i.I2C_Interrupt_Statu_Clear), (12 bytes).
    Removing n32g430_i2c.o(i.I2C_Interrupt_Status_Get), (36 bytes).
    Removing n32g430_i2c.o(i.I2C_Interrupts_Disable), (8 bytes).
    Removing n32g430_i2c.o(i.I2C_Interrupts_Enable), (8 bytes).
    Removing n32g430_i2c.o(i.I2C_Last_Event_Get), (22 bytes).
    Removing n32g430_i2c.o(i.I2C_NACK_Position_Set), (26 bytes).
    Removing n32g430_i2c.o(i.I2C_OFF), (10 bytes).
    Removing n32g430_i2c.o(i.I2C_ON), (10 bytes).
    Removing n32g430_i2c.o(i.I2C_Own_Addr1_Config), (16 bytes).
    Removing n32g430_i2c.o(i.I2C_Own_Addr2_Set), (20 bytes).
    Removing n32g430_i2c.o(i.I2C_PEC_Compute_Disable), (10 bytes).
    Removing n32g430_i2c.o(i.I2C_PEC_Compute_Enable), (10 bytes).
    Removing n32g430_i2c.o(i.I2C_PEC_Get), (8 bytes).
    Removing n32g430_i2c.o(i.I2C_PEC_Position_Set), (26 bytes).
    Removing n32g430_i2c.o(i.I2C_PEC_Send_Disable), (10 bytes).
    Removing n32g430_i2c.o(i.I2C_PEC_Send_Enable), (10 bytes).
    Removing n32g430_i2c.o(i.I2C_Register_Value_Get), (22 bytes).
    Removing n32g430_i2c.o(i.I2C_Reset), (36 bytes).
    Removing n32g430_i2c.o(i.I2C_SCL_Analog_Filter_Disable), (10 bytes).
    Removing n32g430_i2c.o(i.I2C_SCL_Analog_Filter_Enable), (10 bytes).
    Removing n32g430_i2c.o(i.I2C_SCL_Analog_Filter_Width_Set), (18 bytes).
    Removing n32g430_i2c.o(i.I2C_SCL_Digital_Filter_Width_Set), (18 bytes).
    Removing n32g430_i2c.o(i.I2C_SDA_Analog_Filter_Disable), (10 bytes).
    Removing n32g430_i2c.o(i.I2C_SDA_Analog_Filter_Enable), (10 bytes).
    Removing n32g430_i2c.o(i.I2C_SDA_Analog_Filter_Width_Set), (16 bytes).
    Removing n32g430_i2c.o(i.I2C_SDA_Digital_Filter_Width_Set), (18 bytes).
    Removing n32g430_i2c.o(i.I2C_SMBus_Alert_Pin_Set), (26 bytes).
    Removing n32g430_i2c.o(i.I2C_Software_Reset_Disable), (10 bytes).
    Removing n32g430_i2c.o(i.I2C_Software_Reset_Enable), (10 bytes).
    Removing n32g430_iwdg.o(.rev16_text), (4 bytes).
    Removing n32g430_iwdg.o(.revsh_text), (4 bytes).
    Removing n32g430_iwdg.o(.rrx_text), (6 bytes).
    Removing n32g430_iwdg.o(i.IWDG_Counter_Reload), (12 bytes).
    Removing n32g430_iwdg.o(i.IWDG_Enable), (16 bytes).
    Removing n32g430_iwdg.o(i.IWDG_Freeze_Enable), (16 bytes).
    Removing n32g430_iwdg.o(i.IWDG_Key_Reload), (16 bytes).
    Removing n32g430_iwdg.o(i.IWDG_Prescaler_Division_Set), (12 bytes).
    Removing n32g430_iwdg.o(i.IWDG_Restore_From_Freeze), (16 bytes).
    Removing n32g430_iwdg.o(i.IWDG_Status_Get), (24 bytes).
    Removing n32g430_iwdg.o(i.IWDG_Write_Protection_Disable), (16 bytes).
    Removing n32g430_iwdg.o(i.IWDG_Write_Protection_Enable), (12 bytes).
    Removing n32g430_lptim.o(.rev16_text), (4 bytes).
    Removing n32g430_lptim.o(.revsh_text), (4 bytes).
    Removing n32g430_lptim.o(.rrx_text), (6 bytes).
    Removing n32g430_lptim.o(i.LPTIM_Auto_Reload_Get), (8 bytes).
    Removing n32g430_lptim.o(i.LPTIM_Auto_Reload_Set), (4 bytes).
    Removing n32g430_lptim.o(i.LPTIM_Clock_Config), (22 bytes).
    Removing n32g430_lptim.o(i.LPTIM_Clock_Filter_Get), (10 bytes).
    Removing n32g430_lptim.o(i.LPTIM_Clock_Polarity_Get), (10 bytes).
    Removing n32g430_lptim.o(i.LPTIM_Clock_Source_Get), (10 bytes).
    Removing n32g430_lptim.o(i.LPTIM_Clock_Source_Set), (16 bytes).
    Removing n32g430_lptim.o(i.LPTIM_Compare_Get), (8 bytes).
    Removing n32g430_lptim.o(i.LPTIM_Compare_Set), (4 bytes).
    Removing n32g430_lptim.o(i.LPTIM_Counter_Get), (8 bytes).
    Removing n32g430_lptim.o(i.LPTIM_Counter_Mode_Get), (10 bytes).
    Removing n32g430_lptim.o(i.LPTIM_Counter_Mode_Set), (16 bytes).
    Removing n32g430_lptim.o(i.LPTIM_Counter_Start), (16 bytes).
    Removing n32g430_lptim.o(i.LPTIM_Encoder_Mode_Check), (10 bytes).
    Removing n32g430_lptim.o(i.LPTIM_Encoder_Mode_Disable), (10 bytes).
    Removing n32g430_lptim.o(i.LPTIM_Encoder_Mode_Enable), (10 bytes).
    Removing n32g430_lptim.o(i.LPTIM_Encoder_Mode_Get), (10 bytes).
    Removing n32g430_lptim.o(i.LPTIM_Encoder_Mode_Set), (16 bytes).
    Removing n32g430_lptim.o(i.LPTIM_FLAG_Clear), (8 bytes).
    Removing n32g430_lptim.o(i.LPTIM_Flag_Get), (18 bytes).
    Removing n32g430_lptim.o(i.LPTIM_Initializes), (56 bytes).
    Removing n32g430_lptim.o(i.LPTIM_Initializes_Structure), (12 bytes).
    Removing n32g430_lptim.o(i.LPTIM_Input1_Option), (16 bytes).
    Removing n32g430_lptim.o(i.LPTIM_Input2_Option), (16 bytes).
    Removing n32g430_lptim.o(i.LPTIM_Interrupt_Check), (18 bytes).
    Removing n32g430_lptim.o(i.LPTIM_Interrupt_Disable), (8 bytes).
    Removing n32g430_lptim.o(i.LPTIM_Interrupt_Enable), (8 bytes).
    Removing n32g430_lptim.o(i.LPTIM_NoEncoder_Mode_Disable), (10 bytes).
    Removing n32g430_lptim.o(i.LPTIM_NoEncoder_Mode_Enable), (10 bytes).
    Removing n32g430_lptim.o(i.LPTIM_OFF), (10 bytes).
    Removing n32g430_lptim.o(i.LPTIM_ON), (10 bytes).
    Removing n32g430_lptim.o(i.LPTIM_Output_Config), (22 bytes).
    Removing n32g430_lptim.o(i.LPTIM_Polarity_Get), (10 bytes).
    Removing n32g430_lptim.o(i.LPTIM_Polarity_Set), (16 bytes).
    Removing n32g430_lptim.o(i.LPTIM_Prescaler_Get), (10 bytes).
    Removing n32g430_lptim.o(i.LPTIM_Prescaler_Set), (16 bytes).
    Removing n32g430_lptim.o(i.LPTIM_Reset), (10 bytes).
    Removing n32g430_lptim.o(i.LPTIM_Software_Trigger), (10 bytes).
    Removing n32g430_lptim.o(i.LPTIM_Timeout_Disable), (10 bytes).
    Removing n32g430_lptim.o(i.LPTIM_Timeout_Enable), (10 bytes).
    Removing n32g430_lptim.o(i.LPTIM_Timeout_Get), (10 bytes).
    Removing n32g430_lptim.o(i.LPTIM_Trigger_Config), (28 bytes).
    Removing n32g430_lptim.o(i.LPTIM_Trigger_Filter_Get), (10 bytes).
    Removing n32g430_lptim.o(i.LPTIM_Trigger_Polarity_Get), (10 bytes).
    Removing n32g430_lptim.o(i.LPTIM_Trigger_Source_Get), (10 bytes).
    Removing n32g430_lptim.o(i.LPTIM_Update_Mode_Get), (10 bytes).
    Removing n32g430_lptim.o(i.LPTIM_Update_Mode_Set), (16 bytes).
    Removing n32g430_lptim.o(i.LPTIM_Waveform_Get), (10 bytes).
    Removing n32g430_lptim.o(i.LPTIM_Waveform_Set), (16 bytes).
    Removing n32g430_pwr.o(.rev16_text), (4 bytes).
    Removing n32g430_pwr.o(.revsh_text), (4 bytes).
    Removing n32g430_pwr.o(.rrx_text), (6 bytes).
    Removing n32g430_pwr.o(i.PWR_Flag_Status_Clear), (36 bytes).
    Removing n32g430_pwr.o(i.PWR_Flag_Status_Get), (24 bytes).
    Removing n32g430_pwr.o(i.PWR_PVD_Disable), (12 bytes).
    Removing n32g430_pwr.o(i.PWR_PVD_Enable), (12 bytes).
    Removing n32g430_pwr.o(i.PWR_PVD_Level_Config), (24 bytes).
    Removing n32g430_pwr.o(i.PWR_RTC_Backup_Access_Disable), (12 bytes).
    Removing n32g430_pwr.o(i.PWR_RTC_Backup_Access_Enable), (12 bytes).
    Removing n32g430_pwr.o(i.PWR_RTC_Wakeup_Disable), (12 bytes).
    Removing n32g430_pwr.o(i.PWR_RTC_Wakeup_Enable), (12 bytes).
    Removing n32g430_pwr.o(i.PWR_Reset), (12 bytes).
    Removing n32g430_pwr.o(i.PWR_SLEEP_Mode_Enter), (64 bytes).
    Removing n32g430_pwr.o(i.PWR_STANDBY_Mode_Enter), (72 bytes).
    Removing n32g430_pwr.o(i.PWR_STOP0_Mode_Enter), (68 bytes).
    Removing n32g430_pwr.o(i.PWR_STOP2_Mode_Enter), (72 bytes).
    Removing n32g430_pwr.o(i.PWR_Wakeup_Pin_Disable), (60 bytes).
    Removing n32g430_pwr.o(i.PWR_Wakeup_Pin_Enable), (84 bytes).
    Removing n32g430_rcc.o(.rev16_text), (4 bytes).
    Removing n32g430_rcc.o(.revsh_text), (4 bytes).
    Removing n32g430_rcc.o(.rrx_text), (6 bytes).
    Removing n32g430_rcc.o(i.RCC_ADC_Hclk_Disable), (24 bytes).
    Removing n32g430_rcc.o(i.RCC_AHB_Peripheral_Clock_Disable), (16 bytes).
    Removing n32g430_rcc.o(i.RCC_AHB_Peripheral_Reset), (24 bytes).
    Removing n32g430_rcc.o(i.RCC_APB1_Peripheral_Clock_Disable), (16 bytes).
    Removing n32g430_rcc.o(i.RCC_APB1_Peripheral_Reset), (24 bytes).
    Removing n32g430_rcc.o(i.RCC_APB2_Peripheral_Clock_Disable), (16 bytes).
    Removing n32g430_rcc.o(i.RCC_Backup_Reset), (16 bytes).
    Removing n32g430_rcc.o(i.RCC_Clock_Security_System_Disable), (12 bytes).
    Removing n32g430_rcc.o(i.RCC_Clock_Security_System_Enable), (12 bytes).
    Removing n32g430_rcc.o(i.RCC_HSE_Config), (64 bytes).
    Removing n32g430_rcc.o(i.RCC_HSE_Stable_Wait), (84 bytes).
    Removing n32g430_rcc.o(i.RCC_HSI_Calibration_Value_Set), (24 bytes).
    Removing n32g430_rcc.o(i.RCC_HSI_Disable), (12 bytes).
    Removing n32g430_rcc.o(i.RCC_Interrupt_Disable), (16 bytes).
    Removing n32g430_rcc.o(i.RCC_Interrupt_Enable), (16 bytes).
    Removing n32g430_rcc.o(i.RCC_Interrupt_Status_Clear), (16 bytes).
    Removing n32g430_rcc.o(i.RCC_Interrupt_Status_Get), (24 bytes).
    Removing n32g430_rcc.o(i.RCC_LPTIM_Clock_Config), (56 bytes).
    Removing n32g430_rcc.o(i.RCC_LPTIM_Disable), (20 bytes).
    Removing n32g430_rcc.o(i.RCC_LPTIM_Enable), (20 bytes).
    Removing n32g430_rcc.o(i.RCC_LPTIM_Reset), (28 bytes).
    Removing n32g430_rcc.o(i.RCC_LSE_Clock_Security_System_Disable), (12 bytes).
    Removing n32g430_rcc.o(i.RCC_LSE_Clock_Security_System_Enable), (12 bytes).
    Removing n32g430_rcc.o(i.RCC_LSE_Clock_Security_System_Status_Get), (24 bytes).
    Removing n32g430_rcc.o(i.RCC_LSE_Config), (96 bytes).
    Removing n32g430_rcc.o(i.RCC_LSE_Stable_Wait), (84 bytes).
    Removing n32g430_rcc.o(i.RCC_LSE_Trim_Config), (44 bytes).
    Removing n32g430_rcc.o(i.RCC_LSI_Disable), (12 bytes).
    Removing n32g430_rcc.o(i.RCC_LSI_Enable), (12 bytes).
    Removing n32g430_rcc.o(i.RCC_LSI_Stable_Wait), (84 bytes).
    Removing n32g430_rcc.o(i.RCC_MCO_PLL_Prescaler_Config), (24 bytes).
    Removing n32g430_rcc.o(i.RCC_MCO_Source_Config), (24 bytes).
    Removing n32g430_rcc.o(i.RCC_PLL_Disable), (12 bytes).
    Removing n32g430_rcc.o(i.RCC_RTC_Clock_Config), (28 bytes).
    Removing n32g430_rcc.o(i.RCC_RTC_Clock_Disable), (12 bytes).
    Removing n32g430_rcc.o(i.RCC_RTC_Clock_Enable), (12 bytes).
    Removing n32g430_rcc.o(i.RCC_Reset_Flag_Clear), (28 bytes).
    Removing n32g430_rcc.o(i.RCC_TIM1_8_Clock_Config), (24 bytes).
    Removing n32g430_rtc.o(.rev16_text), (4 bytes).
    Removing n32g430_rtc.o(.revsh_text), (4 bytes).
    Removing n32g430_rtc.o(.rrx_text), (6 bytes).
    Removing n32g430_rtc.o(i.RTC_Alarm_Disable), (80 bytes).
    Removing n32g430_rtc.o(i.RTC_Alarm_Enable), (32 bytes).
    Removing n32g430_rtc.o(i.RTC_Alarm_Get), (116 bytes).
    Removing n32g430_rtc.o(i.RTC_Alarm_Set), (176 bytes).
    Removing n32g430_rtc.o(i.RTC_Alarm_Struct_Initializes), (22 bytes).
    Removing n32g430_rtc.o(i.RTC_Alarm_SubSecond_Config), (44 bytes).
    Removing n32g430_rtc.o(i.RTC_Alarm_SubSecond_Get), (36 bytes).
    Removing n32g430_rtc.o(i.RTC_Backup_Register_Read), (20 bytes).
    Removing n32g430_rtc.o(i.RTC_Backup_Register_Write), (16 bytes).
    Removing n32g430_rtc.o(i.RTC_Bcd2_To_Byte), (22 bytes).
    Removing n32g430_rtc.o(i.RTC_Bypass_Shadow_Disable), (28 bytes).
    Removing n32g430_rtc.o(i.RTC_Bypass_Shadow_Enable), (28 bytes).
    Removing n32g430_rtc.o(i.RTC_Byte_To_Bcd2), (28 bytes).
    Removing n32g430_rtc.o(i.RTC_Calendar_Initializes), (428 bytes).
    Removing n32g430_rtc.o(i.RTC_Calibration_Output_Config), (40 bytes).
    Removing n32g430_rtc.o(i.RTC_Calibration_Output_Disable), (28 bytes).
    Removing n32g430_rtc.o(i.RTC_Calibration_Output_Enable), (28 bytes).
    Removing n32g430_rtc.o(i.RTC_Date_Get), (76 bytes).
    Removing n32g430_rtc.o(i.RTC_Date_Struct_Initializes), (14 bytes).
    Removing n32g430_rtc.o(i.RTC_Day_Light_Saving_Config), (52 bytes).
    Removing n32g430_rtc.o(i.RTC_Deinitializes), (116 bytes).
    Removing n32g430_rtc.o(i.RTC_Flag_Clear), (28 bytes).
    Removing n32g430_rtc.o(i.RTC_Flag_Status_Get), (36 bytes).
    Removing n32g430_rtc.o(i.RTC_Hour_Format_Set), (28 bytes).
    Removing n32g430_rtc.o(i.RTC_Initialization_Mode_Enter), (68 bytes).
    Removing n32g430_rtc.o(i.RTC_Initialization_Mode_Exit), (20 bytes).
    Removing n32g430_rtc.o(i.RTC_Interrupt_Status_Clear), (32 bytes).
    Removing n32g430_rtc.o(i.RTC_Interrupt_Status_Get), (76 bytes).
    Removing n32g430_rtc.o(i.RTC_Interrupts_Disable), (28 bytes).
    Removing n32g430_rtc.o(i.RTC_Interrupts_Enable), (28 bytes).
    Removing n32g430_rtc.o(i.RTC_Output_Config), (52 bytes).
    Removing n32g430_rtc.o(i.RTC_Output_Mode_Config), (28 bytes).
    Removing n32g430_rtc.o(i.RTC_Prescale_Config), (20 bytes).
    Removing n32g430_rtc.o(i.RTC_Reference_Clock_Disable), (48 bytes).
    Removing n32g430_rtc.o(i.RTC_Reference_Clock_Enable), (48 bytes).
    Removing n32g430_rtc.o(i.RTC_Registers_Reset), (84 bytes).
    Removing n32g430_rtc.o(i.RTC_Smooth_Calibration_Config), (84 bytes).
    Removing n32g430_rtc.o(i.RTC_Store_Operation_Get), (16 bytes).
    Removing n32g430_rtc.o(i.RTC_Structure_Initializes), (14 bytes).
    Removing n32g430_rtc.o(i.RTC_SubSecond_Get), (12 bytes).
    Removing n32g430_rtc.o(i.RTC_Synchronization_Shift_Config), (108 bytes).
    Removing n32g430_rtc.o(i.RTC_Tamper_Backup_Register_Clear_Disable), (16 bytes).
    Removing n32g430_rtc.o(i.RTC_Tamper_Backup_Register_Clear_Enable), (16 bytes).
    Removing n32g430_rtc.o(i.RTC_Tamper_Disable), (16 bytes).
    Removing n32g430_rtc.o(i.RTC_Tamper_Enable), (16 bytes).
    Removing n32g430_rtc.o(i.RTC_Tamper_Filter_Config), (28 bytes).
    Removing n32g430_rtc.o(i.RTC_Tamper_Interrput_Disable), (16 bytes).
    Removing n32g430_rtc.o(i.RTC_Tamper_Interrput_Enable), (16 bytes).
    Removing n32g430_rtc.o(i.RTC_Tamper_Pins_Precharge_Duration), (28 bytes).
    Removing n32g430_rtc.o(i.RTC_Tamper_Precharge_Disable), (20 bytes).
    Removing n32g430_rtc.o(i.RTC_Tamper_Precharge_Enable), (20 bytes).
    Removing n32g430_rtc.o(i.RTC_Tamper_Sampling_Frequency_Config), (28 bytes).
    Removing n32g430_rtc.o(i.RTC_Tamper_Trigger_Config), (36 bytes).
    Removing n32g430_rtc.o(i.RTC_TimeStamp_Disable), (36 bytes).
    Removing n32g430_rtc.o(i.RTC_TimeStamp_Enable), (44 bytes).
    Removing n32g430_rtc.o(i.RTC_TimeStamp_Get), (156 bytes).
    Removing n32g430_rtc.o(i.RTC_TimeStamp_On_Tamper_Detection_Disable), (20 bytes).
    Removing n32g430_rtc.o(i.RTC_TimeStamp_On_Tamper_Detection_Enable), (20 bytes).
    Removing n32g430_rtc.o(i.RTC_TimeStamp_SubSecond_Get), (12 bytes).
    Removing n32g430_rtc.o(i.RTC_Time_Get), (80 bytes).
    Removing n32g430_rtc.o(i.RTC_Time_Struct_Initializes), (12 bytes).
    Removing n32g430_rtc.o(i.RTC_Wait_For_Synchronization), (76 bytes).
    Removing n32g430_rtc.o(i.RTC_WakeUp_Clock_Select), (40 bytes).
    Removing n32g430_rtc.o(i.RTC_WakeUp_Counter_Get), (12 bytes).
    Removing n32g430_rtc.o(i.RTC_WakeUp_Counter_Set), (44 bytes).
    Removing n32g430_rtc.o(i.RTC_WakeUp_Disable), (80 bytes).
    Removing n32g430_rtc.o(i.RTC_WakeUp_Enable), (32 bytes).
    Removing n32g430_rtc.o(i.RTC_Write_Protection_Disable), (16 bytes).
    Removing n32g430_rtc.o(i.RTC_Write_Protection_Enable), (12 bytes).
    Removing n32g430_rtc.o(.data), (8 bytes).
    Removing n32g430_spi.o(.rev16_text), (4 bytes).
    Removing n32g430_spi.o(.revsh_text), (4 bytes).
    Removing n32g430_spi.o(.rrx_text), (6 bytes).
    Removing n32g430_spi.o(i.I2S_AudioFrequency_Config), (170 bytes).
    Removing n32g430_spi.o(i.I2S_CLKPOL_Config), (16 bytes).
    Removing n32g430_spi.o(i.I2S_DataFormat_Config), (16 bytes).
    Removing n32g430_spi.o(i.I2S_Initializes), (68 bytes).
    Removing n32g430_spi.o(i.I2S_Initializes_Structure), (20 bytes).
    Removing n32g430_spi.o(i.I2S_MCLK_Disable), (10 bytes).
    Removing n32g430_spi.o(i.I2S_MCLK_Enable), (10 bytes).
    Removing n32g430_spi.o(i.I2S_Mode_Config), (16 bytes).
    Removing n32g430_spi.o(i.I2S_OFF), (10 bytes).
    Removing n32g430_spi.o(i.I2S_ON), (10 bytes).
    Removing n32g430_spi.o(i.I2S_Standard_Config), (16 bytes).
    Removing n32g430_spi.o(i.SPI_CRC_Data_Get), (14 bytes).
    Removing n32g430_spi.o(i.SPI_CRC_Disable), (10 bytes).
    Removing n32g430_spi.o(i.SPI_CRC_Enable), (10 bytes).
    Removing n32g430_spi.o(i.SPI_CRC_Polynomial_Get), (6 bytes).
    Removing n32g430_spi.o(i.SPI_I2S_Clear_Flag_Status), (72 bytes).
    Removing n32g430_spi.o(i.SPI_I2S_DMA_Transfer_Disable), (8 bytes).
    Removing n32g430_spi.o(i.SPI_I2S_DMA_Transfer_Enable), (8 bytes).
    Removing n32g430_spi.o(i.SPI_I2S_Data_Get), (6 bytes).
    Removing n32g430_spi.o(i.SPI_I2S_Interrupt_Flag_Status_Get), (122 bytes).
    Removing n32g430_spi.o(i.SPI_I2S_Interrupts_Disable), (8 bytes).
    Removing n32g430_spi.o(i.SPI_I2S_Interrupts_Enable), (8 bytes).
    Removing n32g430_spi.o(i.SPI_I2S_Mode_Select), (16 bytes).
    Removing n32g430_spi.o(i.SPI_Next_Transmit_CRC), (10 bytes).
    Removing n32g430_spi.o(i.SPI_OFF), (10 bytes).
    Removing n32g430_spi.o(i.SPI_SS_Output_Disable), (10 bytes).
    Removing n32g430_spi.o(i.SPI_SS_Output_Enable), (10 bytes).
    Removing n32g430_tim.o(.rev16_text), (4 bytes).
    Removing n32g430_tim.o(.revsh_text), (4 bytes).
    Removing n32g430_tim.o(.rrx_text), (6 bytes).
    Removing n32g430_tim.o(i.Input_Channel1_Config), (124 bytes).
    Removing n32g430_tim.o(i.Input_Channel2_Config), (136 bytes).
    Removing n32g430_tim.o(i.Input_Channel3_Config), (132 bytes).
    Removing n32g430_tim.o(i.Input_Channel4_Config), (140 bytes).
    Removing n32g430_tim.o(i.TIM_Asymmetric_Disable), (10 bytes).
    Removing n32g430_tim.o(i.TIM_Asymmetric_Enable), (10 bytes).
    Removing n32g430_tim.o(i.TIM_Auto_Reload_Get), (6 bytes).
    Removing n32g430_tim.o(i.TIM_Auto_Reload_Preload_Disable), (10 bytes).
    Removing n32g430_tim.o(i.TIM_Auto_Reload_Preload_Enable), (10 bytes).
    Removing n32g430_tim.o(i.TIM_Base_Center_Aligned_Mode_OC4_7_8_9_Trigger_Set), (16 bytes).
    Removing n32g430_tim.o(i.TIM_Base_Count_Get), (6 bytes).
    Removing n32g430_tim.o(i.TIM_Base_Count_Set), (4 bytes).
    Removing n32g430_tim.o(i.TIM_Base_Prescaler_Get), (6 bytes).
    Removing n32g430_tim.o(i.TIM_Break_And_Dead_Time_Set), (96 bytes).
    Removing n32g430_tim.o(i.TIM_Break_And_Dead_Time_Struct_Initialize), (24 bytes).
    Removing n32g430_tim.o(i.TIM_Break_Filter_Config), (52 bytes).
    Removing n32g430_tim.o(i.TIM_Break_Filter_Disable), (10 bytes).
    Removing n32g430_tim.o(i.TIM_Break_Filter_Enable), (10 bytes).
    Removing n32g430_tim.o(i.TIM_CCEN_Status_Get), (16 bytes).
    Removing n32g430_tim.o(i.TIM_Capture_Compare_Ch_Disable), (12 bytes).
    Removing n32g430_tim.o(i.TIM_Capture_Compare_Ch_Enable), (12 bytes).
    Removing n32g430_tim.o(i.TIM_Capture_Compare_Ch_N_Disable), (12 bytes).
    Removing n32g430_tim.o(i.TIM_Capture_Compare_Ch_N_Enable), (12 bytes).
    Removing n32g430_tim.o(i.TIM_Capture_Compare_Control_Preload_Disable), (10 bytes).
    Removing n32g430_tim.o(i.TIM_Capture_Compare_Control_Preload_Enable), (10 bytes).
    Removing n32g430_tim.o(i.TIM_Channel1_Filter_Config), (68 bytes).
    Removing n32g430_tim.o(i.TIM_Channel1_Filter_Disable), (10 bytes).
    Removing n32g430_tim.o(i.TIM_Channel1_Filter_Enable), (10 bytes).
    Removing n32g430_tim.o(i.TIM_Channel2_Filter_Config), (68 bytes).
    Removing n32g430_tim.o(i.TIM_Channel2_Filter_Disable), (10 bytes).
    Removing n32g430_tim.o(i.TIM_Channel2_Filter_Enable), (10 bytes).
    Removing n32g430_tim.o(i.TIM_Channel3_Filter_Config), (68 bytes).
    Removing n32g430_tim.o(i.TIM_Channel3_Filter_Disable), (10 bytes).
    Removing n32g430_tim.o(i.TIM_Channel3_Filter_Enable), (10 bytes).
    Removing n32g430_tim.o(i.TIM_Channel4_Filter_Config), (68 bytes).
    Removing n32g430_tim.o(i.TIM_Channel4_Filter_Disable), (10 bytes).
    Removing n32g430_tim.o(i.TIM_Channel4_Filter_Enable), (10 bytes).
    Removing n32g430_tim.o(i.TIM_Commutation_Event_Disable), (10 bytes).
    Removing n32g430_tim.o(i.TIM_Commutation_Event_Enable), (10 bytes).
    Removing n32g430_tim.o(i.TIM_Compare1_D_Set), (14 bytes).
    Removing n32g430_tim.o(i.TIM_Compare1_Set), (14 bytes).
    Removing n32g430_tim.o(i.TIM_Compare2_D_Set), (14 bytes).
    Removing n32g430_tim.o(i.TIM_Compare2_Set), (14 bytes).
    Removing n32g430_tim.o(i.TIM_Compare3_D_Set), (14 bytes).
    Removing n32g430_tim.o(i.TIM_Compare3_Set), (14 bytes).
    Removing n32g430_tim.o(i.TIM_Compare4_D_Set), (14 bytes).
    Removing n32g430_tim.o(i.TIM_Compare4_Set), (14 bytes).
    Removing n32g430_tim.o(i.TIM_Compare5_Set), (6 bytes).
    Removing n32g430_tim.o(i.TIM_Compare6_Set), (6 bytes).
    Removing n32g430_tim.o(i.TIM_Compare7_Set), (6 bytes).
    Removing n32g430_tim.o(i.TIM_Compare8_Set), (6 bytes).
    Removing n32g430_tim.o(i.TIM_Compare9_Set), (6 bytes).
    Removing n32g430_tim.o(i.TIM_Compare_Capture1_D_Get), (8 bytes).
    Removing n32g430_tim.o(i.TIM_Compare_Capture1_Get), (8 bytes).
    Removing n32g430_tim.o(i.TIM_Compare_Capture2_D_Get), (8 bytes).
    Removing n32g430_tim.o(i.TIM_Compare_Capture2_Get), (8 bytes).
    Removing n32g430_tim.o(i.TIM_Compare_Capture3_D_Get), (8 bytes).
    Removing n32g430_tim.o(i.TIM_Compare_Capture3_Get), (8 bytes).
    Removing n32g430_tim.o(i.TIM_Compare_Capture4_D_Get), (8 bytes).
    Removing n32g430_tim.o(i.TIM_Compare_Capture4_Get), (8 bytes).
    Removing n32g430_tim.o(i.TIM_Compare_Capture5_Get), (8 bytes).
    Removing n32g430_tim.o(i.TIM_Compare_Capture6_Get), (8 bytes).
    Removing n32g430_tim.o(i.TIM_Compare_Capture7_Get), (8 bytes).
    Removing n32g430_tim.o(i.TIM_Compare_Capture8_Get), (8 bytes).
    Removing n32g430_tim.o(i.TIM_Compare_Capture9_Get), (8 bytes).
    Removing n32g430_tim.o(i.TIM_Dma_Config), (10 bytes).
    Removing n32g430_tim.o(i.TIM_Dma_Disable), (8 bytes).
    Removing n32g430_tim.o(i.TIM_Dma_Enable), (8 bytes).
    Removing n32g430_tim.o(i.TIM_Encoder_Interface_Set), (64 bytes).
    Removing n32g430_tim.o(i.TIM_Event_Generate), (4 bytes).
    Removing n32g430_tim.o(i.TIM_External_Clock_Mode1_Set), (66 bytes).
    Removing n32g430_tim.o(i.TIM_External_Clock_Mode2_Set), (44 bytes).
    Removing n32g430_tim.o(i.TIM_External_Trigger_Filter_Set), (24 bytes).
    Removing n32g430_tim.o(i.TIM_External_Trigger_Polarity_Set), (26 bytes).
    Removing n32g430_tim.o(i.TIM_External_Trigger_Prescaler_Set), (16 bytes).
    Removing n32g430_tim.o(i.TIM_Flag_Clear), (6 bytes).
    Removing n32g430_tim.o(i.TIM_Flag_Status_Get), (16 bytes).
    Removing n32g430_tim.o(i.TIM_Forced_Output_Channel1_Set), (18 bytes).
    Removing n32g430_tim.o(i.TIM_Forced_Output_Channel2_Set), (26 bytes).
    Removing n32g430_tim.o(i.TIM_Forced_Output_Channel3_Set), (20 bytes).
    Removing n32g430_tim.o(i.TIM_Forced_Output_Channel4_Set), (28 bytes).
    Removing n32g430_tim.o(i.TIM_Forced_Output_Channel5_Set), (22 bytes).
    Removing n32g430_tim.o(i.TIM_Forced_Output_Channel6_Set), (30 bytes).
    Removing n32g430_tim.o(i.TIM_Hall_Sensor_Disable), (10 bytes).
    Removing n32g430_tim.o(i.TIM_Hall_Sensor_Enable), (10 bytes).
    Removing n32g430_tim.o(i.TIM_IOM_Comp_Break), (22 bytes).
    Removing n32g430_tim.o(i.TIM_Input_Capture1_Prescaler_Set), (18 bytes).
    Removing n32g430_tim.o(i.TIM_Input_Capture2_Prescaler_Set), (26 bytes).
    Removing n32g430_tim.o(i.TIM_Input_Capture3_Prescaler_Set), (18 bytes).
    Removing n32g430_tim.o(i.TIM_Input_Capture4_Prescaler_Set), (20 bytes).
    Removing n32g430_tim.o(i.TIM_Input_Channel_Initialize), (110 bytes).
    Removing n32g430_tim.o(i.TIM_Input_Struct_Initialize), (16 bytes).
    Removing n32g430_tim.o(i.TIM_Internal_Clock_Set), (12 bytes).
    Removing n32g430_tim.o(i.TIM_Internal_Trig_To_Ext_Set), (24 bytes).
    Removing n32g430_tim.o(i.TIM_Interrupt_Disable), (8 bytes).
    Removing n32g430_tim.o(i.TIM_Lock_Up_Break_Disable), (10 bytes).
    Removing n32g430_tim.o(i.TIM_Lock_Up_Break_Enable), (10 bytes).
    Removing n32g430_tim.o(i.TIM_Master_Slave_Mode_Set), (18 bytes).
    Removing n32g430_tim.o(i.TIM_OC4REF_Trigger_To_ADC_Disable), (10 bytes).
    Removing n32g430_tim.o(i.TIM_OC4REF_Trigger_To_ADC_Enable), (10 bytes).
    Removing n32g430_tim.o(i.TIM_OC7REF_Trigger_To_ADC_Disable), (10 bytes).
    Removing n32g430_tim.o(i.TIM_OC7REF_Trigger_To_ADC_Enable), (10 bytes).
    Removing n32g430_tim.o(i.TIM_OC8REF_Trigger_To_ADC_Disable), (10 bytes).
    Removing n32g430_tim.o(i.TIM_OC8REF_Trigger_To_ADC_Enable), (10 bytes).
    Removing n32g430_tim.o(i.TIM_OC9REF_Trigger_To_ADC_Disable), (10 bytes).
    Removing n32g430_tim.o(i.TIM_OC9REF_Trigger_To_ADC_Enable), (10 bytes).
    Removing n32g430_tim.o(i.TIM_Off), (10 bytes).
    Removing n32g430_tim.o(i.TIM_One_Pulse_Mode_Select), (16 bytes).
    Removing n32g430_tim.o(i.TIM_Output_Channel1_Fast_Set), (18 bytes).
    Removing n32g430_tim.o(i.TIM_Output_Channel1_Initialize), (148 bytes).
    Removing n32g430_tim.o(i.TIM_Output_Channel1_Preload_Set), (18 bytes).
    Removing n32g430_tim.o(i.TIM_Output_Channel1_Reference_Clear), (18 bytes).
    Removing n32g430_tim.o(i.TIM_Output_Channel2_Fast_Set), (26 bytes).
    Removing n32g430_tim.o(i.TIM_Output_Channel2_Initialize), (160 bytes).
    Removing n32g430_tim.o(i.TIM_Output_Channel2_Preload_Set), (26 bytes).
    Removing n32g430_tim.o(i.TIM_Output_Channel2_Reference_Clear), (24 bytes).
    Removing n32g430_tim.o(i.TIM_Output_Channel3_Fast_Set), (20 bytes).
    Removing n32g430_tim.o(i.TIM_Output_Channel3_Initialize), (156 bytes).
    Removing n32g430_tim.o(i.TIM_Output_Channel3_Preload_Set), (20 bytes).
    Removing n32g430_tim.o(i.TIM_Output_Channel3_Reference_Clear), (20 bytes).
    Removing n32g430_tim.o(i.TIM_Output_Channel4_Fast_Set), (28 bytes).
    Removing n32g430_tim.o(i.TIM_Output_Channel4_Initialize), (176 bytes).
    Removing n32g430_tim.o(i.TIM_Output_Channel4_Preload_Set), (28 bytes).
    Removing n32g430_tim.o(i.TIM_Output_Channel4_Reference_Clear), (26 bytes).
    Removing n32g430_tim.o(i.TIM_Output_Channel5_Fast_Set), (22 bytes).
    Removing n32g430_tim.o(i.TIM_Output_Channel5_Initialize), (112 bytes).
    Removing n32g430_tim.o(i.TIM_Output_Channel5_Preload_Set), (22 bytes).
    Removing n32g430_tim.o(i.TIM_Output_Channel5_Reference_Clear), (22 bytes).
    Removing n32g430_tim.o(i.TIM_Output_Channel6_Fast_Set), (30 bytes).
    Removing n32g430_tim.o(i.TIM_Output_Channel6_Initialize), (120 bytes).
    Removing n32g430_tim.o(i.TIM_Output_Channel6_Preload_Set), (30 bytes).
    Removing n32g430_tim.o(i.TIM_Output_Channel6_Reference_Clear), (28 bytes).
    Removing n32g430_tim.o(i.TIM_Output_Channel7_Preload_Set), (26 bytes).
    Removing n32g430_tim.o(i.TIM_Output_Channel8_Preload_Set), (26 bytes).
    Removing n32g430_tim.o(i.TIM_Output_Channel9_Preload_Set), (26 bytes).
    Removing n32g430_tim.o(i.TIM_Output_Channel_Mode_Set), (86 bytes).
    Removing n32g430_tim.o(i.TIM_Output_Channel_N_Polarity_Set), (22 bytes).
    Removing n32g430_tim.o(i.TIM_Output_Channel_Polarity_Set), (22 bytes).
    Removing n32g430_tim.o(i.TIM_Output_Channel_Struct_Initialize), (20 bytes).
    Removing n32g430_tim.o(i.TIM_Output_Trigger_Select), (20 bytes).
    Removing n32g430_tim.o(i.TIM_PWM_Input_Channel_Config), (120 bytes).
    Removing n32g430_tim.o(i.TIM_PWM_Output_Disable), (14 bytes).
    Removing n32g430_tim.o(i.TIM_PWM_Output_Enable), (14 bytes).
    Removing n32g430_tim.o(i.TIM_Pvd_Break_Disable), (10 bytes).
    Removing n32g430_tim.o(i.TIM_Pvd_Break_Enable), (10 bytes).
    Removing n32g430_tim.o(i.TIM_Reset), (128 bytes).
    Removing n32g430_tim.o(i.TIM_Slave_Mode_Select), (18 bytes).
    Removing n32g430_tim.o(i.TIM_Trigger_As_External_Clock), (58 bytes).
    Removing n32g430_tim.o(i.TIM_Trigger_Source_Select), (18 bytes).
    Removing n32g430_tim.o(i.TIM_Update_Event_Disable), (10 bytes).
    Removing n32g430_tim.o(i.TIM_Update_Event_Enable), (10 bytes).
    Removing n32g430_tim.o(i.TIM_Update_Request_Source_Set), (22 bytes).
    Removing n32g430_usart.o(.rev16_text), (4 bytes).
    Removing n32g430_usart.o(.revsh_text), (4 bytes).
    Removing n32g430_usart.o(.rrx_text), (6 bytes).
    Removing n32g430_usart.o(i.USART_Address_Set), (16 bytes).
    Removing n32g430_usart.o(i.USART_Baud_Rate_Config), (128 bytes).
    Removing n32g430_usart.o(i.USART_Break_Frame_Send), (10 bytes).
    Removing n32g430_usart.o(i.USART_Clock_Config), (16 bytes).
    Removing n32g430_usart.o(i.USART_Clock_Initializes), (40 bytes).
    Removing n32g430_usart.o(i.USART_Clock_Structure_Initializes), (12 bytes).
    Removing n32g430_usart.o(i.USART_DMA_Transfer_Disable), (8 bytes).
    Removing n32g430_usart.o(i.USART_DMA_Transfer_Enable), (8 bytes).
    Removing n32g430_usart.o(i.USART_Data_Receive), (10 bytes).
    Removing n32g430_usart.o(i.USART_Data_Send), (8 bytes).
    Removing n32g430_usart.o(i.USART_Disable), (10 bytes).
    Removing n32g430_usart.o(i.USART_Enable), (10 bytes).
    Removing n32g430_usart.o(i.USART_Flag_Clear), (6 bytes).
    Removing n32g430_usart.o(i.USART_Flag_Status_Get), (16 bytes).
    Removing n32g430_usart.o(i.USART_Guard_Time_Set), (16 bytes).
    Removing n32g430_usart.o(i.USART_Half_Duplex_Disable), (10 bytes).
    Removing n32g430_usart.o(i.USART_Half_Duplex_Enable), (10 bytes).
    Removing n32g430_usart.o(i.USART_Hardware_Flow_Control_Config), (16 bytes).
    Removing n32g430_usart.o(i.USART_Initializes), (56 bytes).
    Removing n32g430_usart.o(i.USART_Interrput_Disable), (54 bytes).
    Removing n32g430_usart.o(i.USART_Interrput_Enable), (54 bytes).
    Removing n32g430_usart.o(i.USART_Interrupt_Status_Clear), (20 bytes).
    Removing n32g430_usart.o(i.USART_Interrupt_Status_Get), (74 bytes).
    Removing n32g430_usart.o(i.USART_IrDA_Disable), (10 bytes).
    Removing n32g430_usart.o(i.USART_IrDA_Enable), (10 bytes).
    Removing n32g430_usart.o(i.USART_IrDA_Mode_Set), (16 bytes).
    Removing n32g430_usart.o(i.USART_LIN_Break_Detect_Length_Set), (16 bytes).
    Removing n32g430_usart.o(i.USART_LIN_Disable), (10 bytes).
    Removing n32g430_usart.o(i.USART_LIN_Enable), (10 bytes).
    Removing n32g430_usart.o(i.USART_Last_Bit_Config), (16 bytes).
    Removing n32g430_usart.o(i.USART_Mode_Config), (16 bytes).
    Removing n32g430_usart.o(i.USART_Parity_Config), (16 bytes).
    Removing n32g430_usart.o(i.USART_Phase_Config), (16 bytes).
    Removing n32g430_usart.o(i.USART_Polarity_Config), (16 bytes).
    Removing n32g430_usart.o(i.USART_Prescaler_Set), (16 bytes).
    Removing n32g430_usart.o(i.USART_Receiver_Wakeup_Disable), (10 bytes).
    Removing n32g430_usart.o(i.USART_Receiver_Wakeup_Enable), (10 bytes).
    Removing n32g430_usart.o(i.USART_Reset), (84 bytes).
    Removing n32g430_usart.o(i.USART_Smart_Card_Disable), (10 bytes).
    Removing n32g430_usart.o(i.USART_Smart_Card_Enable), (10 bytes).
    Removing n32g430_usart.o(i.USART_Smart_Card_NACK_Disable), (10 bytes).
    Removing n32g430_usart.o(i.USART_Smart_Card_NACK_Enable), (10 bytes).
    Removing n32g430_usart.o(i.USART_Stop_Bits_Config), (16 bytes).
    Removing n32g430_usart.o(i.USART_Structure_Initializes), (24 bytes).
    Removing n32g430_usart.o(i.USART_WakeUp_Mode_Set), (16 bytes).
    Removing n32g430_usart.o(i.USART_Word_Length_Config), (16 bytes).
    Removing n32g430_wwdg.o(.rev16_text), (4 bytes).
    Removing n32g430_wwdg.o(.revsh_text), (4 bytes).
    Removing n32g430_wwdg.o(.rrx_text), (6 bytes).
    Removing n32g430_wwdg.o(i.WWDG_Counter_Value_Set), (16 bytes).
    Removing n32g430_wwdg.o(i.WWDG_EWINTF_Flag_Clear), (12 bytes).
    Removing n32g430_wwdg.o(i.WWDG_EWINTF_Flag_Get), (12 bytes).
    Removing n32g430_wwdg.o(i.WWDG_Enable), (16 bytes).
    Removing n32g430_wwdg.o(i.WWDG_Interrupt_Enable), (12 bytes).
    Removing n32g430_wwdg.o(i.WWDG_Prescaler_Division_Set), (24 bytes).
    Removing n32g430_wwdg.o(i.WWDG_Reset), (12 bytes).
    Removing n32g430_wwdg.o(i.WWDG_Window_Value_Set), (40 bytes).
    Removing system_n32g430.o(.rev16_text), (4 bytes).
    Removing system_n32g430.o(.revsh_text), (4 bytes).
    Removing system_n32g430.o(.rrx_text), (6 bytes).
    Removing system_n32g430.o(i.System_Clock_Frequency_Update), (208 bytes).
    Removing system_n32g430.o(.constdata), (16 bytes).
    Removing main.o(.rev16_text), (4 bytes).
    Removing main.o(.revsh_text), (4 bytes).
    Removing main.o(.rrx_text), (6 bytes).
    Removing n32g430_it.o(.rev16_text), (4 bytes).
    Removing n32g430_it.o(.revsh_text), (4 bytes).
    Removing n32g430_it.o(.rrx_text), (6 bytes).
    Removing lcd.o(.rev16_text), (4 bytes).
    Removing lcd.o(.revsh_text), (4 bytes).
    Removing lcd.o(.rrx_text), (6 bytes).
    Removing lcd.o(i.Draw_Circle), (158 bytes).
    Removing lcd.o(i.LCD_DrawLine), (172 bytes).
    Removing lcd.o(i.LCD_DrawRectangle), (74 bytes).
    Removing lcd.o(i.LCD_ShowFloatNum1), (180 bytes).
    Removing lcd.o(i.LCD_ShowIntNum), (150 bytes).
    Removing lcd.o(i.mypow), (22 bytes).
    Removing lcd_init.o(.rev16_text), (4 bytes).
    Removing lcd_init.o(.revsh_text), (4 bytes).
    Removing lcd_init.o(.rrx_text), (6 bytes).
    Removing adc.o(.rev16_text), (4 bytes).
    Removing adc.o(.revsh_text), (4 bytes).
    Removing adc.o(.rrx_text), (6 bytes).
    Removing spi.o(.rev16_text), (4 bytes).
    Removing spi.o(.revsh_text), (4 bytes).
    Removing spi.o(.rrx_text), (6 bytes).
    Removing fs2711.o(.rev16_text), (4 bytes).
    Removing fs2711.o(.revsh_text), (4 bytes).
    Removing fs2711.o(.rrx_text), (6 bytes).
    Removing fs2711.o(i.FS2711_DPDM_Reset), (12 bytes).
    Removing fs2711.o(i.FS2711_DPDM_Set), (12 bytes).
    Removing fs2711.o(i.FS2711_Decoy_Protocol), (228 bytes).
    Removing fs2711.o(i.FS2711_Get_PD_Information), (324 bytes).
    Removing fs2711.o(i.FS2711_Port_Connect), (20 bytes).
    Removing fs2711.o(i.FS2711_Scan_Start), (12 bytes).
    Removing fs2711.o(i.FS2711_Set_Sweep_Mode), (14 bytes).
    Removing fs2711.o(i.FS2711_TEST), (2 bytes).
    Removing fs2711.o(i.HAL_GPIO_EXTI_Callback), (10 bytes).
    Removing fs2711.o(.data), (1 bytes).
    Removing i2c.o(.rev16_text), (4 bytes).
    Removing i2c.o(.revsh_text), (4 bytes).
    Removing i2c.o(.rrx_text), (6 bytes).
    Removing flash.o(.rev16_text), (4 bytes).
    Removing flash.o(.revsh_text), (4 bytes).
    Removing flash.o(.rrx_text), (6 bytes).
    Removing key.o(.rev16_text), (4 bytes).
    Removing key.o(.revsh_text), (4 bytes).
    Removing key.o(.rrx_text), (6 bytes).
    Removing key.o(i.KEY_GetLossenTime), (24 bytes).
    Removing key.o(i.KEY_UnRegister), (20 bytes).
    Removing keyio.o(.rev16_text), (4 bytes).
    Removing keyio.o(.revsh_text), (4 bytes).
    Removing keyio.o(.rrx_text), (6 bytes).
    Removing sysclk.o(.rev16_text), (4 bytes).
    Removing sysclk.o(.revsh_text), (4 bytes).
    Removing sysclk.o(.rrx_text), (6 bytes).
    Removing menu.o(i.Menu_DeInit), (52 bytes).
    Removing menu.o(i.Menu_EnableEnglish), (16 bytes).
    Removing menu.o(i.Menu_IsEnglish), (12 bytes).
    Removing menu.o(i.Menu_IsRun), (20 bytes).
    Removing menu.o(i.Menu_QueryParentMenu), (188 bytes).
    Removing ui.o(.rev16_text), (4 bytes).
    Removing ui.o(.revsh_text), (4 bytes).
    Removing ui.o(.rrx_text), (6 bytes).
    Removing ui_measure.o(.rev16_text), (4 bytes).
    Removing ui_measure.o(.revsh_text), (4 bytes).
    Removing ui_measure.o(.rrx_text), (6 bytes).
    Removing ui_adjust.o(.rev16_text), (4 bytes).
    Removing ui_adjust.o(.revsh_text), (4 bytes).
    Removing ui_adjust.o(.rrx_text), (6 bytes).
    Removing decoy.o(.rev16_text), (4 bytes).
    Removing decoy.o(.revsh_text), (4 bytes).
    Removing decoy.o(.rrx_text), (6 bytes).
    Removing decoy.o(i.Decoy), (32 bytes).
    Removing decoy.o(i.Start_FS2711_With), (2 bytes).

880 unused section(s) (total 27015 bytes) removed from the image.

==============================================================================

Image Symbol Table

    Local Symbols

    Symbol Name                              Value     Ov Type        Size  Object(Section)

    ../clib/angel/boardlib.s                 0x00000000   Number         0  boardinit1.o ABSOLUTE
    ../clib/angel/boardlib.s                 0x00000000   Number         0  boardinit3.o ABSOLUTE
    ../clib/angel/boardlib.s                 0x00000000   Number         0  boardinit2.o ABSOLUTE
    ../clib/angel/boardlib.s                 0x00000000   Number         0  boardshut.o ABSOLUTE
    ../clib/angel/dczerorl2.s                0x00000000   Number         0  __dczerorl2.o ABSOLUTE
    ../clib/angel/handlers.s                 0x00000000   Number         0  __scatter_zi.o ABSOLUTE
    ../clib/angel/kernel.s                   0x00000000   Number         0  rtexit2.o ABSOLUTE
    ../clib/angel/kernel.s                   0x00000000   Number         0  __rtentry4.o ABSOLUTE
    ../clib/angel/kernel.s                   0x00000000   Number         0  __rtentry2.o ABSOLUTE
    ../clib/angel/kernel.s                   0x00000000   Number         0  rtexit.o ABSOLUTE
    ../clib/angel/kernel.s                   0x00000000   Number         0  __rtentry.o ABSOLUTE
    ../clib/angel/rt.s                       0x00000000   Number         0  rt_raise.o ABSOLUTE
    ../clib/angel/rt.s                       0x00000000   Number         0  rt_locale.o ABSOLUTE
    ../clib/angel/rt.s                       0x00000000   Number         0  rt_locale_intlibspace.o ABSOLUTE
    ../clib/angel/scatter.s                  0x00000000   Number         0  __scatter.o ABSOLUTE
    ../clib/angel/startup.s                  0x00000000   Number         0  __main.o ABSOLUTE
    ../clib/angel/sys.s                      0x00000000   Number         0  indicate_semi.o ABSOLUTE
    ../clib/angel/sys.s                      0x00000000   Number         0  libspace.o ABSOLUTE
    ../clib/angel/sys.s                      0x00000000   Number         0  use_no_semi.o ABSOLUTE
    ../clib/angel/sys.s                      0x00000000   Number         0  sys_stackheap_outer.o ABSOLUTE
    ../clib/angel/sysapp.c                   0x00000000   Number         0  sys_wrch.o ABSOLUTE
    ../clib/angel/sysapp.c                   0x00000000   Number         0  sys_exit.o ABSOLUTE
    ../clib/angel/sysapp.c                   0x00000000   Number         0  sys_command.o ABSOLUTE
    ../clib/armsys.c                         0x00000000   Number         0  no_argv.o ABSOLUTE
    ../clib/armsys.c                         0x00000000   Number         0  _get_argv_nomalloc.o ABSOLUTE
    ../clib/armsys.c                         0x00000000   Number         0  argv_veneer.o ABSOLUTE
    ../clib/armsys.c                         0x00000000   Number         0  argv_veneer.o ABSOLUTE
    ../clib/bigflt.c                         0x00000000   Number         0  bigflt0.o ABSOLUTE
    ../clib/btod.s                           0x00000000   Number         0  btod.o ABSOLUTE
    ../clib/heapalloc.c                      0x00000000   Number         0  hrguard.o ABSOLUTE
    ../clib/heapaux.c                        0x00000000   Number         0  heapauxi.o ABSOLUTE
    ../clib/libinit.s                        0x00000000   Number         0  libshutdown2.o ABSOLUTE
    ../clib/libinit.s                        0x00000000   Number         0  libshutdown.o ABSOLUTE
    ../clib/libinit.s                        0x00000000   Number         0  libinit.o ABSOLUTE
    ../clib/libinit.s                        0x00000000   Number         0  libinit2.o ABSOLUTE
    ../clib/locale.s                         0x00000000   Number         0  lc_numeric_c.o ABSOLUTE
    ../clib/longlong.s                       0x00000000   Number         0  lludiv10.o ABSOLUTE
    ../clib/memcpset.s                       0x00000000   Number         0  rt_memclr_w.o ABSOLUTE
    ../clib/memcpset.s                       0x00000000   Number         0  strcmpv7m.o ABSOLUTE
    ../clib/memcpset.s                       0x00000000   Number         0  rt_memclr.o ABSOLUTE
    ../clib/misc.s                           0x00000000   Number         0  printf_stubs.o ABSOLUTE
    ../clib/printf.c                         0x00000000   Number         0  __printf_ss_wp.o ABSOLUTE
    ../clib/printf.c                         0x00000000   Number         0  __printf_ss.o ABSOLUTE
    ../clib/printf.c                         0x00000000   Number         0  __printf_flags_ss_wp.o ABSOLUTE
    ../clib/printf.c                         0x00000000   Number         0  __2sprintf.o ABSOLUTE
    ../clib/printf.c                         0x00000000   Number         0  __printf.o ABSOLUTE
    ../clib/printf.c                         0x00000000   Number         0  __printf_wp.o ABSOLUTE
    ../clib/printf.c                         0x00000000   Number         0  __printf_flags_wp.o ABSOLUTE
    ../clib/printf.c                         0x00000000   Number         0  _printf_fp_dec.o ABSOLUTE
    ../clib/printf.c                         0x00000000   Number         0  _printf_char_common.o ABSOLUTE
    ../clib/printf.c                         0x00000000   Number         0  _sputc.o ABSOLUTE
    ../clib/printf.c                         0x00000000   Number         0  __printf_flags_ss.o ABSOLUTE
    ../clib/printf.c                         0x00000000   Number         0  __printf_flags.o ABSOLUTE
    ../clib/printf.c                         0x00000000   Number         0  _printf_fp_infnan.o ABSOLUTE
    ../clib/printf.c                         0x00000000   Number         0  __printf_nopercent.o ABSOLUTE
    ../clib/printf.c                         0x00000000   Number         0  noretval__2sprintf.o ABSOLUTE
    ../clib/printf_percent.s                 0x00000000   Number         0  _printf_percent_end.o ABSOLUTE
    ../clib/printf_percent.s                 0x00000000   Number         0  _printf_percent.o ABSOLUTE
    ../clib/printf_percent.s                 0x00000000   Number         0  _printf_f.o ABSOLUTE
    ../clib/signal.c                         0x00000000   Number         0  __raise.o ABSOLUTE
    ../clib/signal.c                         0x00000000   Number         0  defsig_rtmem_inner.o ABSOLUTE
    ../clib/signal.c                         0x00000000   Number         0  defsig_exit.o ABSOLUTE
    ../clib/signal.c                         0x00000000   Number         0  defsig_abrt_inner.o ABSOLUTE
    ../clib/signal.c                         0x00000000   Number         0  defsig_fpe_inner.o ABSOLUTE
    ../clib/signal.c                         0x00000000   Number         0  defsig_stak_inner.o ABSOLUTE
    ../clib/signal.c                         0x00000000   Number         0  defsig_rtmem_outer.o ABSOLUTE
    ../clib/signal.c                         0x00000000   Number         0  defsig_rtred_inner.o ABSOLUTE
    ../clib/signal.c                         0x00000000   Number         0  defsig_pvfn_inner.o ABSOLUTE
    ../clib/signal.c                         0x00000000   Number         0  defsig_cppl_inner.o ABSOLUTE
    ../clib/signal.c                         0x00000000   Number         0  defsig_rtmem_formal.o ABSOLUTE
    ../clib/signal.c                         0x00000000   Number         0  defsig_segv_inner.o ABSOLUTE
    ../clib/signal.c                         0x00000000   Number         0  defsig_other.o ABSOLUTE
    ../clib/signal.c                         0x00000000   Number         0  defsig_general.o ABSOLUTE
    ../clib/signal.s                         0x00000000   Number         0  defsig.o ABSOLUTE
    ../clib/stdlib.c                         0x00000000   Number         0  exit.o ABSOLUTE
    ../clib/string.c                         0x00000000   Number         0  strlen.o ABSOLUTE
    ../fplib/d2f.s                           0x00000000   Number         0  d2f.o ABSOLUTE
    ../fplib/ddiv.s                          0x00000000   Number         0  ddiv.o ABSOLUTE
    ../fplib/dflt.s                          0x00000000   Number         0  dflt_clz.o ABSOLUTE
    ../fplib/dmul.s                          0x00000000   Number         0  dmul.o ABSOLUTE
    ../fplib/dnaninf.s                       0x00000000   Number         0  dnaninf.o ABSOLUTE
    ../fplib/dretinf.s                       0x00000000   Number         0  dretinf.o ABSOLUTE
    ../fplib/f2d.s                           0x00000000   Number         0  f2d.o ABSOLUTE
    ../fplib/fnaninf.s                       0x00000000   Number         0  fnaninf.o ABSOLUTE
    ../fplib/fpinit.s                        0x00000000   Number         0  fpinit.o ABSOLUTE
    ../fplib/fretinf.s                       0x00000000   Number         0  fretinf.o ABSOLUTE
    ../fplib/istatus.s                       0x00000000   Number         0  istatus.o ABSOLUTE
    ../fplib/printf1.s                       0x00000000   Number         0  printf1.o ABSOLUTE
    ../fplib/usenofp.s                       0x00000000   Number         0  usenofp.o ABSOLUTE
    ../mathlib/fpclassify.c                  0x00000000   Number         0  fpclassify.o ABSOLUTE
    BSP\\bsp_delay.c                         0x00000000   Number         0  bsp_delay.o ABSOLUTE
    BSP\\n32g430_it.c                        0x00000000   Number         0  n32g430_it.o ABSOLUTE
    BSP\bsp_delay.c                          0x00000000   Number         0  bsp_delay.o ABSOLUTE
    BSP\n32g430_it.c                         0x00000000   Number         0  n32g430_it.o ABSOLUTE
    Hardware\ADC\adc.c                       0x00000000   Number         0  adc.o ABSOLUTE
    Hardware\DECOY\decoy.c                   0x00000000   Number         0  decoy.o ABSOLUTE
    Hardware\FLASH\flash.c                   0x00000000   Number         0  flash.o ABSOLUTE
    Hardware\FS2711\FS2711.c                 0x00000000   Number         0  fs2711.o ABSOLUTE
    Hardware\I2C\i2c.c                       0x00000000   Number         0  i2c.o ABSOLUTE
    Hardware\KEY\key.c                       0x00000000   Number         0  key.o ABSOLUTE
    Hardware\KEY\keyio.c                     0x00000000   Number         0  keyio.o ABSOLUTE
    Hardware\LCD\lcd.c                       0x00000000   Number         0  lcd.o ABSOLUTE
    Hardware\LCD\lcd_init.c                  0x00000000   Number         0  lcd_init.o ABSOLUTE
    Hardware\MENU\src\menu.c                 0x00000000   Number         0  menu.o ABSOLUTE
    Hardware\MENU\src\ui.c                   0x00000000   Number         0  ui.o ABSOLUTE
    Hardware\MENU\src\ui_adjust.c            0x00000000   Number         0  ui_adjust.o ABSOLUTE
    Hardware\MENU\src\ui_measure.c           0x00000000   Number         0  ui_measure.o ABSOLUTE
    Hardware\SPI\spi.c                       0x00000000   Number         0  spi.o ABSOLUTE
    Hardware\SYSCLK\sysclk.c                 0x00000000   Number         0  sysclk.o ABSOLUTE
    Hardware\\ADC\\adc.c                     0x00000000   Number         0  adc.o ABSOLUTE
    Hardware\\DECOY\\decoy.c                 0x00000000   Number         0  decoy.o ABSOLUTE
    Hardware\\FLASH\\flash.c                 0x00000000   Number         0  flash.o ABSOLUTE
    Hardware\\FS2711\\FS2711.c               0x00000000   Number         0  fs2711.o ABSOLUTE
    Hardware\\I2C\\i2c.c                     0x00000000   Number         0  i2c.o ABSOLUTE
    Hardware\\KEY\\key.c                     0x00000000   Number         0  key.o ABSOLUTE
    Hardware\\KEY\\keyio.c                   0x00000000   Number         0  keyio.o ABSOLUTE
    Hardware\\LCD\\lcd.c                     0x00000000   Number         0  lcd.o ABSOLUTE
    Hardware\\LCD\\lcd_init.c                0x00000000   Number         0  lcd_init.o ABSOLUTE
    Hardware\\MENU\\src\\ui.c                0x00000000   Number         0  ui.o ABSOLUTE
    Hardware\\MENU\\src\\ui_adjust.c         0x00000000   Number         0  ui_adjust.o ABSOLUTE
    Hardware\\MENU\\src\\ui_measure.c        0x00000000   Number         0  ui_measure.o ABSOLUTE
    Hardware\\SPI\\spi.c                     0x00000000   Number         0  spi.o ABSOLUTE
    Hardware\\SYSCLK\\sysclk.c               0x00000000   Number         0  sysclk.o ABSOLUTE
    dc.s                                     0x00000000   Number         0  dc.o ABSOLUTE
    firmware\CMSIS\device\startup\startup_n32g430.s 0x00000000   Number         0  startup_n32g430.o ABSOLUTE
    firmware\CMSIS\device\system_n32g430.c   0x00000000   Number         0  system_n32g430.o ABSOLUTE
    firmware\\CMSIS\\device\\system_n32g430.c 0x00000000   Number         0  system_n32g430.o ABSOLUTE
    firmware\\n32g430_std_periph_driver\\src\\misc.c 0x00000000   Number         0  misc.o ABSOLUTE
    firmware\\n32g430_std_periph_driver\\src\\n32g430_adc.c 0x00000000   Number         0  n32g430_adc.o ABSOLUTE
    firmware\\n32g430_std_periph_driver\\src\\n32g430_beeper.c 0x00000000   Number         0  n32g430_beeper.o ABSOLUTE
    firmware\\n32g430_std_periph_driver\\src\\n32g430_can.c 0x00000000   Number         0  n32g430_can.o ABSOLUTE
    firmware\\n32g430_std_periph_driver\\src\\n32g430_comp.c 0x00000000   Number         0  n32g430_comp.o ABSOLUTE
    firmware\\n32g430_std_periph_driver\\src\\n32g430_crc.c 0x00000000   Number         0  n32g430_crc.o ABSOLUTE
    firmware\\n32g430_std_periph_driver\\src\\n32g430_dbg.c 0x00000000   Number         0  n32g430_dbg.o ABSOLUTE
    firmware\\n32g430_std_periph_driver\\src\\n32g430_dma.c 0x00000000   Number         0  n32g430_dma.o ABSOLUTE
    firmware\\n32g430_std_periph_driver\\src\\n32g430_exti.c 0x00000000   Number         0  n32g430_exti.o ABSOLUTE
    firmware\\n32g430_std_periph_driver\\src\\n32g430_flash.c 0x00000000   Number         0  n32g430_flash.o ABSOLUTE
    firmware\\n32g430_std_periph_driver\\src\\n32g430_gpio.c 0x00000000   Number         0  n32g430_gpio.o ABSOLUTE
    firmware\\n32g430_std_periph_driver\\src\\n32g430_i2c.c 0x00000000   Number         0  n32g430_i2c.o ABSOLUTE
    firmware\\n32g430_std_periph_driver\\src\\n32g430_iwdg.c 0x00000000   Number         0  n32g430_iwdg.o ABSOLUTE
    firmware\\n32g430_std_periph_driver\\src\\n32g430_lptim.c 0x00000000   Number         0  n32g430_lptim.o ABSOLUTE
    firmware\\n32g430_std_periph_driver\\src\\n32g430_pwr.c 0x00000000   Number         0  n32g430_pwr.o ABSOLUTE
    firmware\\n32g430_std_periph_driver\\src\\n32g430_rcc.c 0x00000000   Number         0  n32g430_rcc.o ABSOLUTE
    firmware\\n32g430_std_periph_driver\\src\\n32g430_rtc.c 0x00000000   Number         0  n32g430_rtc.o ABSOLUTE
    firmware\\n32g430_std_periph_driver\\src\\n32g430_spi.c 0x00000000   Number         0  n32g430_spi.o ABSOLUTE
    firmware\\n32g430_std_periph_driver\\src\\n32g430_tim.c 0x00000000   Number         0  n32g430_tim.o ABSOLUTE
    firmware\\n32g430_std_periph_driver\\src\\n32g430_usart.c 0x00000000   Number         0  n32g430_usart.o ABSOLUTE
    firmware\\n32g430_std_periph_driver\\src\\n32g430_wwdg.c 0x00000000   Number         0  n32g430_wwdg.o ABSOLUTE
    firmware\n32g430_std_periph_driver\src\misc.c 0x00000000   Number         0  misc.o ABSOLUTE
    firmware\n32g430_std_periph_driver\src\n32g430_adc.c 0x00000000   Number         0  n32g430_adc.o ABSOLUTE
    firmware\n32g430_std_periph_driver\src\n32g430_beeper.c 0x00000000   Number         0  n32g430_beeper.o ABSOLUTE
    firmware\n32g430_std_periph_driver\src\n32g430_can.c 0x00000000   Number         0  n32g430_can.o ABSOLUTE
    firmware\n32g430_std_periph_driver\src\n32g430_comp.c 0x00000000   Number         0  n32g430_comp.o ABSOLUTE
    firmware\n32g430_std_periph_driver\src\n32g430_crc.c 0x00000000   Number         0  n32g430_crc.o ABSOLUTE
    firmware\n32g430_std_periph_driver\src\n32g430_dbg.c 0x00000000   Number         0  n32g430_dbg.o ABSOLUTE
    firmware\n32g430_std_periph_driver\src\n32g430_dma.c 0x00000000   Number         0  n32g430_dma.o ABSOLUTE
    firmware\n32g430_std_periph_driver\src\n32g430_exti.c 0x00000000   Number         0  n32g430_exti.o ABSOLUTE
    firmware\n32g430_std_periph_driver\src\n32g430_flash.c 0x00000000   Number         0  n32g430_flash.o ABSOLUTE
    firmware\n32g430_std_periph_driver\src\n32g430_gpio.c 0x00000000   Number         0  n32g430_gpio.o ABSOLUTE
    firmware\n32g430_std_periph_driver\src\n32g430_i2c.c 0x00000000   Number         0  n32g430_i2c.o ABSOLUTE
    firmware\n32g430_std_periph_driver\src\n32g430_iwdg.c 0x00000000   Number         0  n32g430_iwdg.o ABSOLUTE
    firmware\n32g430_std_periph_driver\src\n32g430_lptim.c 0x00000000   Number         0  n32g430_lptim.o ABSOLUTE
    firmware\n32g430_std_periph_driver\src\n32g430_pwr.c 0x00000000   Number         0  n32g430_pwr.o ABSOLUTE
    firmware\n32g430_std_periph_driver\src\n32g430_rcc.c 0x00000000   Number         0  n32g430_rcc.o ABSOLUTE
    firmware\n32g430_std_periph_driver\src\n32g430_rtc.c 0x00000000   Number         0  n32g430_rtc.o ABSOLUTE
    firmware\n32g430_std_periph_driver\src\n32g430_spi.c 0x00000000   Number         0  n32g430_spi.o ABSOLUTE
    firmware\n32g430_std_periph_driver\src\n32g430_tim.c 0x00000000   Number         0  n32g430_tim.o ABSOLUTE
    firmware\n32g430_std_periph_driver\src\n32g430_usart.c 0x00000000   Number         0  n32g430_usart.o ABSOLUTE
    firmware\n32g430_std_periph_driver\src\n32g430_wwdg.c 0x00000000   Number         0  n32g430_wwdg.o ABSOLUTE
    usr\\main.c                              0x00000000   Number         0  main.o ABSOLUTE
    usr\main.c                               0x00000000   Number         0  main.o ABSOLUTE
    RESET                                    0x08000000   Section      276  startup_n32g430.o(RESET)
    !!!main                                  0x08000114   Section        8  __main.o(!!!main)
    !!!scatter                               0x0800011c   Section       52  __scatter.o(!!!scatter)
    !!dczerorl2                              0x08000150   Section       90  __dczerorl2.o(!!dczerorl2)
    !!handler_zi                             0x080001ac   Section       28  __scatter_zi.o(!!handler_zi)
    .ARM.Collect$$_printf_percent$$00000000  0x080001c8   Section        0  _printf_percent.o(.ARM.Collect$$_printf_percent$$00000000)
    .ARM.Collect$$_printf_percent$$00000003  0x080001c8   Section        6  _printf_f.o(.ARM.Collect$$_printf_percent$$00000003)
    .ARM.Collect$$_printf_percent$$00000017  0x080001ce   Section        4  _printf_percent_end.o(.ARM.Collect$$_printf_percent$$00000017)
    .ARM.Collect$$libinit$$00000000          0x080001d2   Section        2  libinit.o(.ARM.Collect$$libinit$$00000000)
    .ARM.Collect$$libinit$$00000001          0x080001d4   Section        4  libinit2.o(.ARM.Collect$$libinit$$00000001)
    .ARM.Collect$$libinit$$00000004          0x080001d8   Section        0  libinit2.o(.ARM.Collect$$libinit$$00000004)
    .ARM.Collect$$libinit$$0000000A          0x080001d8   Section        0  libinit2.o(.ARM.Collect$$libinit$$0000000A)
    .ARM.Collect$$libinit$$0000000C          0x080001d8   Section        0  libinit2.o(.ARM.Collect$$libinit$$0000000C)
    .ARM.Collect$$libinit$$0000000E          0x080001d8   Section        0  libinit2.o(.ARM.Collect$$libinit$$0000000E)
    .ARM.Collect$$libinit$$0000000F          0x080001d8   Section        6  libinit2.o(.ARM.Collect$$libinit$$0000000F)
    .ARM.Collect$$libinit$$00000011          0x080001de   Section        0  libinit2.o(.ARM.Collect$$libinit$$00000011)
    .ARM.Collect$$libinit$$00000013          0x080001de   Section        0  libinit2.o(.ARM.Collect$$libinit$$00000013)
    .ARM.Collect$$libinit$$00000015          0x080001de   Section        0  libinit2.o(.ARM.Collect$$libinit$$00000015)
    .ARM.Collect$$libinit$$00000016          0x080001de   Section       10  libinit2.o(.ARM.Collect$$libinit$$00000016)
    .ARM.Collect$$libinit$$00000017          0x080001e8   Section        0  libinit2.o(.ARM.Collect$$libinit$$00000017)
    .ARM.Collect$$libinit$$00000019          0x080001e8   Section        0  libinit2.o(.ARM.Collect$$libinit$$00000019)
    .ARM.Collect$$libinit$$0000001B          0x080001e8   Section        0  libinit2.o(.ARM.Collect$$libinit$$0000001B)
    .ARM.Collect$$libinit$$0000001D          0x080001e8   Section        0  libinit2.o(.ARM.Collect$$libinit$$0000001D)
    .ARM.Collect$$libinit$$0000001F          0x080001e8   Section        0  libinit2.o(.ARM.Collect$$libinit$$0000001F)
    .ARM.Collect$$libinit$$00000021          0x080001e8   Section        0  libinit2.o(.ARM.Collect$$libinit$$00000021)
    .ARM.Collect$$libinit$$00000023          0x080001e8   Section        0  libinit2.o(.ARM.Collect$$libinit$$00000023)
    .ARM.Collect$$libinit$$00000025          0x080001e8   Section        0  libinit2.o(.ARM.Collect$$libinit$$00000025)
    .ARM.Collect$$libinit$$0000002C          0x080001e8   Section        0  libinit2.o(.ARM.Collect$$libinit$$0000002C)
    .ARM.Collect$$libinit$$0000002E          0x080001e8   Section        0  libinit2.o(.ARM.Collect$$libinit$$0000002E)
    .ARM.Collect$$libinit$$00000030          0x080001e8   Section        0  libinit2.o(.ARM.Collect$$libinit$$00000030)
    .ARM.Collect$$libinit$$00000032          0x080001e8   Section        0  libinit2.o(.ARM.Collect$$libinit$$00000032)
    .ARM.Collect$$libinit$$00000033          0x080001e8   Section        2  libinit2.o(.ARM.Collect$$libinit$$00000033)
    .ARM.Collect$$libshutdown$$00000000      0x080001ea   Section        2  libshutdown.o(.ARM.Collect$$libshutdown$$00000000)
    .ARM.Collect$$libshutdown$$00000002      0x080001ec   Section        0  libshutdown2.o(.ARM.Collect$$libshutdown$$00000002)
    .ARM.Collect$$libshutdown$$00000004      0x080001ec   Section        0  libshutdown2.o(.ARM.Collect$$libshutdown$$00000004)
    .ARM.Collect$$libshutdown$$00000007      0x080001ec   Section        0  libshutdown2.o(.ARM.Collect$$libshutdown$$00000007)
    .ARM.Collect$$libshutdown$$0000000A      0x080001ec   Section        0  libshutdown2.o(.ARM.Collect$$libshutdown$$0000000A)
    .ARM.Collect$$libshutdown$$0000000C      0x080001ec   Section        0  libshutdown2.o(.ARM.Collect$$libshutdown$$0000000C)
    .ARM.Collect$$libshutdown$$0000000F      0x080001ec   Section        0  libshutdown2.o(.ARM.Collect$$libshutdown$$0000000F)
    .ARM.Collect$$libshutdown$$00000010      0x080001ec   Section        2  libshutdown2.o(.ARM.Collect$$libshutdown$$00000010)
    .ARM.Collect$$rtentry$$00000000          0x080001ee   Section        0  __rtentry.o(.ARM.Collect$$rtentry$$00000000)
    .ARM.Collect$$rtentry$$00000002          0x080001ee   Section        0  __rtentry2.o(.ARM.Collect$$rtentry$$00000002)
    .ARM.Collect$$rtentry$$00000004          0x080001ee   Section        6  __rtentry4.o(.ARM.Collect$$rtentry$$00000004)
    .ARM.Collect$$rtentry$$00000009          0x080001f4   Section        0  __rtentry2.o(.ARM.Collect$$rtentry$$00000009)
    .ARM.Collect$$rtentry$$0000000A          0x080001f4   Section        4  __rtentry2.o(.ARM.Collect$$rtentry$$0000000A)
    .ARM.Collect$$rtentry$$0000000C          0x080001f8   Section        0  __rtentry2.o(.ARM.Collect$$rtentry$$0000000C)
    .ARM.Collect$$rtentry$$0000000D          0x080001f8   Section        8  __rtentry2.o(.ARM.Collect$$rtentry$$0000000D)
    .ARM.Collect$$rtexit$$00000000           0x08000200   Section        2  rtexit.o(.ARM.Collect$$rtexit$$00000000)
    .ARM.Collect$$rtexit$$00000002           0x08000202   Section        0  rtexit2.o(.ARM.Collect$$rtexit$$00000002)
    .ARM.Collect$$rtexit$$00000003           0x08000202   Section        4  rtexit2.o(.ARM.Collect$$rtexit$$00000003)
    .ARM.Collect$$rtexit$$00000004           0x08000206   Section        6  rtexit2.o(.ARM.Collect$$rtexit$$00000004)
    .text                                    0x0800020c   Section       64  startup_n32g430.o(.text)
    $v0                                      0x0800020c   Number         0  startup_n32g430.o(.text)
    .text                                    0x0800024c   Section        0  noretval__2sprintf.o(.text)
    .text                                    0x08000274   Section        0  __printf_wp.o(.text)
    .text                                    0x08000382   Section        0  strlen.o(.text)
    .text                                    0x080003c0   Section       68  rt_memclr.o(.text)
    .text                                    0x08000404   Section       78  rt_memclr_w.o(.text)
    .text                                    0x08000454   Section      128  strcmpv7m.o(.text)
    .text                                    0x080004d4   Section        0  heapauxi.o(.text)
    .text                                    0x080004da   Section        0  _printf_fp_dec.o(.text)
    _fp_digits                               0x080004dd   Thumb Code   428  _printf_fp_dec.o(.text)
    .text                                    0x080008f4   Section        0  _printf_char_common.o(.text)
    _printf_input_char                       0x080008f5   Thumb Code    10  _printf_char_common.o(.text)
    .text                                    0x08000924   Section        0  _sputc.o(.text)
    .text                                    0x08000930   Section        8  rt_locale_intlibspace.o(.text)
    .text                                    0x08000938   Section      138  lludiv10.o(.text)
    .text                                    0x080009c4   Section        0  _printf_fp_infnan.o(.text)
    .text                                    0x08000a44   Section        0  bigflt0.o(.text)
    .text                                    0x08000b20   Section        8  libspace.o(.text)
    .text                                    0x08000b28   Section       74  sys_stackheap_outer.o(.text)
    .text                                    0x08000b72   Section        0  exit.o(.text)
    .text                                    0x08000b84   Section        0  sys_exit.o(.text)
    .text                                    0x08000b90   Section        2  use_no_semi.o(.text)
    .text                                    0x08000b92   Section        0  indicate_semi.o(.text)
    CL$$btod_d2e                             0x08000b92   Section       62  btod.o(CL$$btod_d2e)
    CL$$btod_d2e_denorm_low                  0x08000bd0   Section       70  btod.o(CL$$btod_d2e_denorm_low)
    CL$$btod_d2e_norm_op1                    0x08000c16   Section       96  btod.o(CL$$btod_d2e_norm_op1)
    CL$$btod_div_common                      0x08000c76   Section      824  btod.o(CL$$btod_div_common)
    CL$$btod_e2e                             0x08000fae   Section      198  btod.o(CL$$btod_e2e)
    CL$$btod_ediv                            0x08001074   Section       40  btod.o(CL$$btod_ediv)
    CL$$btod_emul                            0x0800109c   Section       40  btod.o(CL$$btod_emul)
    CL$$btod_mult_common                     0x080010c4   Section      580  btod.o(CL$$btod_mult_common)
    i.ADC_AHB_Clock_Mode_Config              0x08001308   Section        0  n32g430_adc.o(i.ADC_AHB_Clock_Mode_Config)
    i.ADC_CLK_Init                           0x0800131c   Section        0  adc.o(i.ADC_CLK_Init)
    i.ADC_Calibration_Operation              0x08001340   Section        0  n32g430_adc.o(i.ADC_Calibration_Operation)
    i.ADC_Channel_Sample_Time_Config         0x08001388   Section        0  n32g430_adc.o(i.ADC_Channel_Sample_Time_Config)
    i.ADC_Clock_Mode_Config                  0x08001414   Section        0  n32g430_adc.o(i.ADC_Clock_Mode_Config)
    i.ADC_Configuration                      0x0800143c   Section        0  adc.o(i.ADC_Configuration)
    i.ADC_Continue_Conversion_Disable        0x080014ec   Section        0  n32g430_adc.o(i.ADC_Continue_Conversion_Disable)
    i.ADC_Continue_Conversion_Enable         0x08001500   Section        0  n32g430_adc.o(i.ADC_Continue_Conversion_Enable)
    i.ADC_DMA_Transfer_Enable                0x08001514   Section        0  n32g430_adc.o(i.ADC_DMA_Transfer_Enable)
    i.ADC_Data_Alignment_Config              0x08001528   Section        0  n32g430_adc.o(i.ADC_Data_Alignment_Config)
    i.ADC_Flag_Status_Clear                  0x08001544   Section        0  n32g430_adc.o(i.ADC_Flag_Status_Clear)
    i.ADC_Flag_Status_Get                    0x08001554   Section        0  n32g430_adc.o(i.ADC_Flag_Status_Get)
    i.ADC_Initializes                        0x08001580   Section        0  n32g430_adc.o(i.ADC_Initializes)
    i.ADC_Multichannels_Disable              0x080015b4   Section        0  n32g430_adc.o(i.ADC_Multichannels_Disable)
    i.ADC_Multichannels_Enable               0x080015c8   Section        0  n32g430_adc.o(i.ADC_Multichannels_Enable)
    i.ADC_ON                                 0x080015dc   Section        0  n32g430_adc.o(i.ADC_ON)
    i.ADC_PLL_Clock_Mode_Config              0x080015f0   Section        0  n32g430_adc.o(i.ADC_PLL_Clock_Mode_Config)
    i.ADC_Regular_Channels_Number_Config     0x08001604   Section        0  n32g430_adc.o(i.ADC_Regular_Channels_Number_Config)
    i.ADC_Regular_Channels_Software_Conversion_Operation 0x08001620   Section        0  n32g430_adc.o(i.ADC_Regular_Channels_Software_Conversion_Operation)
    i.ADC_Regular_Group_External_Trigger_Source_Config 0x08001668   Section        0  n32g430_adc.o(i.ADC_Regular_Group_External_Trigger_Source_Config)
    i.ADC_Regular_Sequence_Conversion_Number_Config 0x08001684   Section        0  n32g430_adc.o(i.ADC_Regular_Sequence_Conversion_Number_Config)
    i.ADC_Temperature_Sensor_And_Vrefint_Channel_Enable 0x0800171c   Section        0  n32g430_adc.o(i.ADC_Temperature_Sensor_And_Vrefint_Channel_Enable)
    i.BusFault_Handler                       0x08001744   Section        0  n32g430_it.o(i.BusFault_Handler)
    i.DBG_SysTick_Config                     0x08001748   Section        0  bsp_delay.o(i.DBG_SysTick_Config)
    DBG_SysTick_Config                       0x08001749   Thumb Code    86  bsp_delay.o(i.DBG_SysTick_Config)
    i.DMA_Buffer_Size_Config                 0x080017a8   Section        0  n32g430_dma.o(i.DMA_Buffer_Size_Config)
    i.DMA_Channel_Enable                     0x080017ac   Section        0  n32g430_dma.o(i.DMA_Channel_Enable)
    i.DMA_Channel_Request_Remap              0x080017b6   Section        0  n32g430_dma.o(i.DMA_Channel_Request_Remap)
    i.DMA_Circular_Mode_Config               0x080017ba   Section        0  n32g430_dma.o(i.DMA_Circular_Mode_Config)
    i.DMA_Configuration                      0x080017cc   Section        0  adc.o(i.DMA_Configuration)
    i.DMA_Destination_Config                 0x08001834   Section        0  n32g430_dma.o(i.DMA_Destination_Config)
    i.DMA_Initializes                        0x08001844   Section        0  n32g430_dma.o(i.DMA_Initializes)
    i.DMA_Memory_2_Memory_Config             0x080018a4   Section        0  n32g430_dma.o(i.DMA_Memory_2_Memory_Config)
    i.DMA_Memory_Addr_Increment_Config       0x080018b4   Section        0  n32g430_dma.o(i.DMA_Memory_Addr_Increment_Config)
    i.DMA_Memory_Address_Config              0x080018c4   Section        0  n32g430_dma.o(i.DMA_Memory_Address_Config)
    i.DMA_Memory_Data_Width_Config           0x080018c8   Section        0  n32g430_dma.o(i.DMA_Memory_Data_Width_Config)
    i.DMA_Peripheral_Addr_Increment_Config   0x080018d8   Section        0  n32g430_dma.o(i.DMA_Peripheral_Addr_Increment_Config)
    i.DMA_Peripheral_Address_Config          0x080018e8   Section        0  n32g430_dma.o(i.DMA_Peripheral_Address_Config)
    i.DMA_Peripheral_Data_Width_Config       0x080018ec   Section        0  n32g430_dma.o(i.DMA_Peripheral_Data_Width_Config)
    i.DMA_Priority_Config                    0x080018fc   Section        0  n32g430_dma.o(i.DMA_Priority_Config)
    i.DMA_Structure_Initializes              0x0800190c   Section        0  n32g430_dma.o(i.DMA_Structure_Initializes)
    i.DebugMon_Handler                       0x08001926   Section        0  n32g430_it.o(i.DebugMon_Handler)
    i.DeleteMenu                             0x08001928   Section        0  menu.o(i.DeleteMenu)
    DeleteMenu                               0x08001929   Thumb Code    20  menu.o(i.DeleteMenu)
    i.EnableNewProtocol                      0x08001940   Section        0  decoy.o(i.EnableNewProtocol)
    i.FLASH_Flag_Status_Clear                0x08001a24   Section        0  n32g430_flash.o(i.FLASH_Flag_Status_Clear)
    i.FLASH_Last_Operation_Wait              0x08001a34   Section        0  n32g430_flash.o(i.FLASH_Last_Operation_Wait)
    i.FLASH_Latency_Set                      0x08001a5c   Section        0  n32g430_flash.o(i.FLASH_Latency_Set)
    i.FLASH_Lock                             0x08001a74   Section        0  n32g430_flash.o(i.FLASH_Lock)
    i.FLASH_One_Page_Erase                   0x08001a88   Section        0  n32g430_flash.o(i.FLASH_One_Page_Erase)
    i.FLASH_SIM_EraseEE                      0x08001ad8   Section        0  flash.o(i.FLASH_SIM_EraseEE)
    FLASH_SIM_EraseEE                        0x08001ad9   Thumb Code    20  flash.o(i.FLASH_SIM_EraseEE)
    i.FLASH_Status_Get                       0x08001aec   Section        0  n32g430_flash.o(i.FLASH_Status_Get)
    i.FLASH_Unlock                           0x08001b20   Section        0  n32g430_flash.o(i.FLASH_Unlock)
    i.FLASH_Word_Program                     0x08001b38   Section        0  n32g430_flash.o(i.FLASH_Word_Program)
    i.FS2711_Debug                           0x08001b88   Section        0  fs2711.o(i.FS2711_Debug)
    i.FS2711_Enable_Protocol                 0x08001b8c   Section        0  fs2711.o(i.FS2711_Enable_Protocol)
    i.FS2711_Enable_Voltage_Current          0x08001ba6   Section        0  fs2711.o(i.FS2711_Enable_Voltage_Current)
    i.FS2711_GPIO_Init                       0x08001bb4   Section        0  i2c.o(i.FS2711_GPIO_Init)
    i.FS2711_Get_PPS_Num                     0x08001bf4   Section        0  fs2711.o(i.FS2711_Get_PPS_Num)
    i.FS2711_Get_State                       0x08001c1c   Section        0  fs2711.o(i.FS2711_Get_State)
    i.FS2711_Port_Disconnect                 0x08001e48   Section        0  fs2711.o(i.FS2711_Port_Disconnect)
    i.FS2711_Port_Reset                      0x08001e5c   Section        0  fs2711.o(i.FS2711_Port_Reset)
    i.FS2711_Read                            0x08001e86   Section        0  fs2711.o(i.FS2711_Read)
    i.FS2711_SCP_Calc                        0x08001e98   Section        0  fs2711.o(i.FS2711_SCP_Calc)
    i.FS2711_Select_Protocol                 0x08001ed8   Section        0  fs2711.o(i.FS2711_Select_Protocol)
    i.FS2711_Select_Voltage_Current          0x08001f20   Section        0  fs2711.o(i.FS2711_Select_Voltage_Current)
    i.FS2711_System_Reset                    0x080022c4   Section        0  fs2711.o(i.FS2711_System_Reset)
    i.FS2711_Write                           0x080022d0   Section        0  fs2711.o(i.FS2711_Write)
    i.Flash_Read                             0x080022e0   Section        0  flash.o(i.Flash_Read)
    i.Flash_Write                            0x08002340   Section        0  flash.o(i.Flash_Write)
    i.GPIO_Alternate_Set                     0x080023b8   Section        0  n32g430_gpio.o(i.GPIO_Alternate_Set)
    i.GPIO_Configuration                     0x080023f8   Section        0  adc.o(i.GPIO_Configuration)
    i.GPIO_Driver_Set                        0x0800241c   Section        0  n32g430_gpio.o(i.GPIO_Driver_Set)
    i.GPIO_Input_Pin_Data_Get                0x08002438   Section        0  n32g430_gpio.o(i.GPIO_Input_Pin_Data_Get)
    i.GPIO_Mode_Set                          0x08002448   Section        0  n32g430_gpio.o(i.GPIO_Mode_Set)
    i.GPIO_Peripheral_Initialize             0x0800248c   Section        0  n32g430_gpio.o(i.GPIO_Peripheral_Initialize)
    i.GPIO_Pins_Reset                        0x080024e2   Section        0  n32g430_gpio.o(i.GPIO_Pins_Reset)
    i.GPIO_Pins_Set                          0x080024e6   Section        0  n32g430_gpio.o(i.GPIO_Pins_Set)
    i.GPIO_Pull_Set                          0x080024ea   Section        0  n32g430_gpio.o(i.GPIO_Pull_Set)
    i.GPIO_SlewRate_Set                      0x08002506   Section        0  n32g430_gpio.o(i.GPIO_SlewRate_Set)
    i.GPIO_Structure_Initialize              0x0800251e   Section        0  n32g430_gpio.o(i.GPIO_Structure_Initialize)
    i.Get_Average_ADC_Converted_Value        0x08002538   Section        0  adc.o(i.Get_Average_ADC_Converted_Value)
    i.HardFault_Handler                      0x080026ec   Section        0  n32g430_it.o(i.HardFault_Handler)
    i.I2C_ReStart                            0x080026f0   Section        0  i2c.o(i.I2C_ReStart)
    i.I2C_Start                              0x08002748   Section        0  i2c.o(i.I2C_Start)
    i.I2C_Stop                               0x08002790   Section        0  i2c.o(i.I2C_Stop)
    i.I2C_Wait_Ack                           0x080027c8   Section        0  i2c.o(i.I2C_Wait_Ack)
    i.InitKeyIo                              0x080027f0   Section        0  keyio.o(i.InitKeyIo)
    InitKeyIo                                0x080027f1   Thumb Code    64  keyio.o(i.InitKeyIo)
    i.Init_FS2711                            0x08002838   Section        0  decoy.o(i.Init_FS2711)
    i.IoKey_Init                             0x08002874   Section        0  keyio.o(i.IoKey_Init)
    i.IoKey_Read                             0x08002894   Section        0  keyio.o(i.IoKey_Read)
    i.IoKey_Scan                             0x080028a8   Section        0  keyio.o(i.IoKey_Scan)
    i.KEY_GetClickCnt                        0x080028f8   Section        0  key.o(i.KEY_GetClickCnt)
    i.KEY_GetPressTime                       0x08002974   Section        0  key.o(i.KEY_GetPressTime)
    i.KEY_Init                               0x0800298c   Section        0  key.o(i.KEY_Init)
    i.KEY_Register                           0x080029ec   Section        0  key.o(i.KEY_Register)
    i.KEY_Scan                               0x08002a00   Section        0  key.o(i.KEY_Scan)
    i.KEY_SetNotifyTime                      0x08002bcc   Section        0  key.o(i.KEY_SetNotifyTime)
    i.Key_Register_PD                        0x08002be0   Section        0  ui_adjust.o(i.Key_Register_PD)
    i.Key_Register_QC                        0x08002bf0   Section        0  ui_adjust.o(i.Key_Register_QC)
    i.Key_Start_Task                         0x08002c00   Section        0  ui.o(i.Key_Start_Task)
    i.LCD_Address_Set                        0x08002c28   Section        0  lcd_init.o(i.LCD_Address_Set)
    i.LCD_DrawPoint                          0x08002c6e   Section        0  lcd.o(i.LCD_DrawPoint)
    i.LCD_Fill                               0x08002c8a   Section        0  lcd.o(i.LCD_Fill)
    i.LCD_GPIO_Init                          0x08002cd4   Section        0  lcd_init.o(i.LCD_GPIO_Init)
    i.LCD_Init                               0x08002d10   Section        0  lcd_init.o(i.LCD_Init)
    i.LCD_Roll                               0x08002f6c   Section        0  lcd.o(i.LCD_Roll)
    i.LCD_ShowChar                           0x08002f9c   Section        0  lcd.o(i.LCD_ShowChar)
    i.LCD_ShowPicture                        0x080030f4   Section        0  lcd.o(i.LCD_ShowPicture)
    i.LCD_ShowString                         0x0800315a   Section        0  lcd.o(i.LCD_ShowString)
    i.LCD_WR_DATA                            0x0800319c   Section        0  lcd_init.o(i.LCD_WR_DATA)
    i.LCD_WR_DATA8                           0x080031a8   Section        0  lcd_init.o(i.LCD_WR_DATA8)
    i.LCD_WR_REG                             0x080031b4   Section        0  lcd_init.o(i.LCD_WR_REG)
    i.LCD_Writ_Bus                           0x080031d8   Section        0  lcd_init.o(i.LCD_Writ_Bus)
    i.MemManage_Handler                      0x080031e4   Section        0  n32g430_it.o(i.MemManage_Handler)
    i.Menu_Bind                              0x080031e8   Section        0  menu.o(i.Menu_Bind)
    i.Menu_Enter                             0x08003220   Section        0  menu.o(i.Menu_Enter)
    i.Menu_Exit                              0x080032b4   Section        0  menu.o(i.Menu_Exit)
    i.Menu_Init                              0x08003350   Section        0  menu.o(i.Menu_Init)
    i.Menu_LimitShowListNum                  0x080033b8   Section        0  menu.o(i.Menu_LimitShowListNum)
    i.Menu_Reset                             0x080033f8   Section        0  menu.o(i.Menu_Reset)
    i.Menu_ResetItemsNum                     0x08003434   Section        0  menu.o(i.Menu_ResetItemsNum)
    i.Menu_SelectNext                        0x08003444   Section        0  menu.o(i.Menu_SelectNext)
    i.Menu_SelectPrevious                    0x0800349c   Section        0  menu.o(i.Menu_SelectPrevious)
    i.Menu_SetItemBeginLocation              0x080034ec   Section        0  menu.o(i.Menu_SetItemBeginLocation)
    i.Menu_SetShowBaseItem                   0x0800355c   Section        0  menu.o(i.Menu_SetShowBaseItem)
    i.Menu_ShortcutEnter                     0x08003568   Section        0  menu.o(i.Menu_ShortcutEnter)
    i.Menu_Task                              0x080035c8   Section        0  menu.o(i.Menu_Task)
    i.NMI_Handler                            0x080036b8   Section        0  n32g430_it.o(i.NMI_Handler)
    i.NVIC_Initializes                       0x080036bc   Section        0  misc.o(i.NVIC_Initializes)
    i.NewMenu                                0x0800372c   Section        0  menu.o(i.NewMenu)
    NewMenu                                  0x0800372d   Thumb Code    32  menu.o(i.NewMenu)
    i.OnKeyActionProess                      0x08003754   Section        0  ui.o(i.OnKeyActionProess)
    i.OnKeyActionProessDown                  0x08003864   Section        0  ui.o(i.OnKeyActionProessDown)
    i.OnKeyActionProessUp                    0x0800388c   Section        0  ui.o(i.OnKeyActionProessUp)
    i.OnKeyOkPDProess                        0x080038b4   Section        0  ui_adjust.o(i.OnKeyOkPDProess)
    i.OnKeyOkQCProess                        0x08003988   Section        0  ui_adjust.o(i.OnKeyOkQCProess)
    i.OnPDFunction                           0x08003a5c   Section        0  ui_adjust.o(i.OnPDFunction)
    i.OnPDFunctionExit                       0x08003b38   Section        0  ui_adjust.o(i.OnPDFunctionExit)
    i.OnPDFunctionLoad                       0x08003b74   Section        0  ui_adjust.o(i.OnPDFunctionLoad)
    i.OnQCFunction                           0x08003bf8   Section        0  ui_adjust.o(i.OnQCFunction)
    i.OnQCFunctionExit                       0x08003cd4   Section        0  ui_adjust.o(i.OnQCFunctionExit)
    i.OnQCFunctionLoad                       0x08003d08   Section        0  ui_adjust.o(i.OnQCFunctionLoad)
    i.PD_Ok                                  0x08003df8   Section        0  ui_adjust.o(i.PD_Ok)
    i.PinInInitSDA                           0x08003f08   Section        0  i2c.o(i.PinInInitSDA)
    i.PinOutInitSDA                          0x08003f34   Section        0  i2c.o(i.PinOutInitSDA)
    i.QC_Ok                                  0x08003f60   Section        0  ui_adjust.o(i.QC_Ok)
    i.RCC_ADC_1M_Clock_Config                0x0800400c   Section        0  n32g430_rcc.o(i.RCC_ADC_1M_Clock_Config)
    i.RCC_ADC_Hclk_Config                    0x08004028   Section        0  n32g430_rcc.o(i.RCC_ADC_Hclk_Config)
    i.RCC_ADC_Hclk_Enable                    0x08004040   Section        0  n32g430_rcc.o(i.RCC_ADC_Hclk_Enable)
    i.RCC_ADC_PLL_Clock_Disable              0x08004058   Section        0  n32g430_rcc.o(i.RCC_ADC_PLL_Clock_Disable)
    i.RCC_ADC_PLL_Clock_Prescaler_Enable     0x0800406c   Section        0  n32g430_rcc.o(i.RCC_ADC_PLL_Clock_Prescaler_Enable)
    i.RCC_AHB_Peripheral_Clock_Enable        0x08004084   Section        0  n32g430_rcc.o(i.RCC_AHB_Peripheral_Clock_Enable)
    i.RCC_APB1_Peripheral_Clock_Enable       0x08004094   Section        0  n32g430_rcc.o(i.RCC_APB1_Peripheral_Clock_Enable)
    i.RCC_APB2_Peripheral_Clock_Enable       0x080040a4   Section        0  n32g430_rcc.o(i.RCC_APB2_Peripheral_Clock_Enable)
    i.RCC_APB2_Peripheral_Reset              0x080040b4   Section        0  n32g430_rcc.o(i.RCC_APB2_Peripheral_Reset)
    i.RCC_Clocks_Frequencies_Value_Get       0x080040cc   Section        0  n32g430_rcc.o(i.RCC_Clocks_Frequencies_Value_Get)
    i.RCC_Flag_Status_Get                    0x080041e4   Section        0  n32g430_rcc.o(i.RCC_Flag_Status_Get)
    i.RCC_HSI_Enable                         0x08004224   Section        0  n32g430_rcc.o(i.RCC_HSI_Enable)
    i.RCC_HSI_Stable_Wait                    0x08004230   Section        0  n32g430_rcc.o(i.RCC_HSI_Stable_Wait)
    i.RCC_Hclk_Config                        0x08004284   Section        0  n32g430_rcc.o(i.RCC_Hclk_Config)
    i.RCC_PLL_Config                         0x0800429c   Section        0  n32g430_rcc.o(i.RCC_PLL_Config)
    i.RCC_PLL_Enable                         0x080042d4   Section        0  n32g430_rcc.o(i.RCC_PLL_Enable)
    i.RCC_Pclk1_Config                       0x080042e0   Section        0  n32g430_rcc.o(i.RCC_Pclk1_Config)
    i.RCC_Pclk2_Config                       0x080042f8   Section        0  n32g430_rcc.o(i.RCC_Pclk2_Config)
    i.RCC_Reset                              0x08004310   Section        0  n32g430_rcc.o(i.RCC_Reset)
    i.RCC_Sysclk_Config                      0x08004370   Section        0  n32g430_rcc.o(i.RCC_Sysclk_Config)
    i.RCC_Sysclk_Source_Get                  0x08004388   Section        0  n32g430_rcc.o(i.RCC_Sysclk_Source_Get)
    i.Read_I2C_Byte                          0x08004398   Section        0  i2c.o(i.Read_I2C_Byte)
    i.Read_IIC                               0x080043f8   Section        0  i2c.o(i.Read_IIC)
    i.SPI_BaudRatePres_Config                0x08004430   Section        0  n32g430_spi.o(i.SPI_BaudRatePres_Config)
    i.SPI_CLKPHA_Config                      0x08004440   Section        0  n32g430_spi.o(i.SPI_CLKPHA_Config)
    i.SPI_CLKPOL_Config                      0x08004450   Section        0  n32g430_spi.o(i.SPI_CLKPOL_Config)
    i.SPI_CRC_Polynomial_Set                 0x08004460   Section        0  n32g430_spi.o(i.SPI_CRC_Polynomial_Set)
    i.SPI_DataDirection_Config               0x08004464   Section        0  n32g430_spi.o(i.SPI_DataDirection_Config)
    i.SPI_DataLen_Config                     0x08004474   Section        0  n32g430_spi.o(i.SPI_DataLen_Config)
    i.SPI_FirstBit_Config                    0x08004484   Section        0  n32g430_spi.o(i.SPI_FirstBit_Config)
    i.SPI_GPIO_Init                          0x08004494   Section        0  spi.o(i.SPI_GPIO_Init)
    i.SPI_I2S_Data_Transmit                  0x080044c0   Section        0  n32g430_spi.o(i.SPI_I2S_Data_Transmit)
    i.SPI_I2S_Flag_Status_Get                0x080044c4   Section        0  n32g430_spi.o(i.SPI_I2S_Flag_Status_Get)
    i.SPI_I2S_Reset                          0x080044d8   Section        0  n32g430_spi.o(i.SPI_I2S_Reset)
    i.SPI_Initializes                        0x08004504   Section        0  n32g430_spi.o(i.SPI_Initializes)
    i.SPI_Initializes_Structure              0x08004554   Section        0  n32g430_spi.o(i.SPI_Initializes_Structure)
    i.SPI_NSS_Config                         0x0800456c   Section        0  n32g430_spi.o(i.SPI_NSS_Config)
    i.SPI_ON                                 0x0800457c   Section        0  n32g430_spi.o(i.SPI_ON)
    i.SPI_Send_Data16                        0x08004586   Section        0  spi.o(i.SPI_Send_Data16)
    i.SPI_Send_Data8                         0x08004598   Section        0  spi.o(i.SPI_Send_Data8)
    i.SPI_Set_Nss_Level                      0x080045dc   Section        0  n32g430_spi.o(i.SPI_Set_Nss_Level)
    i.SPI_SpiMode_Config                     0x080045f6   Section        0  n32g430_spi.o(i.SPI_SpiMode_Config)
    i.SPI_TFT_Init                           0x08004608   Section        0  spi.o(i.SPI_TFT_Init)
    i.SVC_Handler                            0x08004664   Section        0  n32g430_it.o(i.SVC_Handler)
    i.Set_PD_Protocol                        0x08004668   Section        0  ui_adjust.o(i.Set_PD_Protocol)
    i.Set_QC_Protocol                        0x08004678   Section        0  ui_adjust.o(i.Set_QC_Protocol)
    i.Set_SysClock_To_PLL128MHz              0x08004688   Section        0  sysclk.o(i.Set_SysClock_To_PLL128MHz)
    i.ShowAdjMainMenu                        0x080046f0   Section        0  ui_adjust.o(i.ShowAdjMainMenu)
    i.ShowMainMenu                           0x08004780   Section        0  ui.o(i.ShowMainMenu)
    i.ShowPdMainMenu                         0x080047fc   Section        0  ui_adjust.o(i.ShowPdMainMenu)
    i.ShowQCMainMenu                         0x08004f94   Section        0  ui_adjust.o(i.ShowQCMainMenu)
    i.Start_ADC_Convert_Once                 0x080051ac   Section        0  adc.o(i.Start_ADC_Convert_Once)
    i.SysTick_Delay_Ms                       0x080051d6   Section        0  bsp_delay.o(i.SysTick_Delay_Ms)
    i.SysTick_Delay_Us                       0x08005220   Section        0  bsp_delay.o(i.SysTick_Delay_Us)
    i.SysTick_Handler                        0x0800526c   Section        0  n32g430_it.o(i.SysTick_Handler)
    i.System_Clock_Set                       0x08005270   Section        0  system_n32g430.o(i.System_Clock_Set)
    System_Clock_Set                         0x08005271   Thumb Code   254  system_n32g430.o(i.System_Clock_Set)
    i.System_Initializes                     0x08005388   Section        0  system_n32g430.o(i.System_Initializes)
    i.TIM6_IRQHandler                        0x08005434   Section        0  main.o(i.TIM6_IRQHandler)
    i.TIM_Base_Auto_Reload_Set               0x08005484   Section        0  n32g430_tim.o(i.TIM_Base_Auto_Reload_Set)
    i.TIM_Base_Channel1                      0x08005488   Section        0  n32g430_tim.o(i.TIM_Base_Channel1)
    i.TIM_Base_Channel2                      0x0800549e   Section        0  n32g430_tim.o(i.TIM_Base_Channel2)
    i.TIM_Base_Channel3                      0x080054b4   Section        0  n32g430_tim.o(i.TIM_Base_Channel3)
    i.TIM_Base_Channel4                      0x080054ca   Section        0  n32g430_tim.o(i.TIM_Base_Channel4)
    i.TIM_Base_Count_Mode_Set                0x080054e0   Section        0  n32g430_tim.o(i.TIM_Base_Count_Mode_Set)
    i.TIM_Base_Initialize                    0x080054f0   Section        0  n32g430_tim.o(i.TIM_Base_Initialize)
    i.TIM_Base_OCrefClear                    0x080055a0   Section        0  n32g430_tim.o(i.TIM_Base_OCrefClear)
    i.TIM_Base_Prescaler_Set                 0x080055b6   Section        0  n32g430_tim.o(i.TIM_Base_Prescaler_Set)
    i.TIM_Base_Reload_Mode_Set               0x080055ba   Section        0  n32g430_tim.o(i.TIM_Base_Reload_Mode_Set)
    i.TIM_Base_Repeat_Count_Set              0x080055be   Section        0  n32g430_tim.o(i.TIM_Base_Repeat_Count_Set)
    i.TIM_Base_Struct_Initialize             0x080055c2   Section        0  n32g430_tim.o(i.TIM_Base_Struct_Initialize)
    i.TIM_Clock_Division_Set                 0x080055e0   Section        0  n32g430_tim.o(i.TIM_Clock_Division_Set)
    i.TIM_Interrupt_Enable                   0x080055f0   Section        0  n32g430_tim.o(i.TIM_Interrupt_Enable)
    i.TIM_Interrupt_Status_Clear             0x080055f8   Section        0  n32g430_tim.o(i.TIM_Interrupt_Status_Clear)
    i.TIM_Interrupt_Status_Get               0x080055fe   Section        0  n32g430_tim.o(i.TIM_Interrupt_Status_Get)
    i.TIM_On                                 0x0800561e   Section        0  n32g430_tim.o(i.TIM_On)
    i.TempCal                                0x08005628   Section        0  adc.o(i.TempCal)
    i.Tim6_Init                              0x08005694   Section        0  main.o(i.Tim6_Init)
    i.UI_Adjust_Exit                         0x080056fc   Section        0  ui_adjust.o(i.UI_Adjust_Exit)
    i.UI_Adjust_Load                         0x08005714   Section        0  ui_adjust.o(i.UI_Adjust_Load)
    i.UI_Adjust_Task                         0x08005738   Section        0  ui_adjust.o(i.UI_Adjust_Task)
    i.UI_Main_Load                           0x0800573c   Section        0  ui.o(i.UI_Main_Load)
    i.UI_Main_Task                           0x08005778   Section        0  ui.o(i.UI_Main_Task)
    i.UI_Measure_Exit                        0x0800577c   Section        0  ui_measure.o(i.UI_Measure_Exit)
    i.UI_Measure_Load                        0x08005798   Section        0  ui_measure.o(i.UI_Measure_Load)
    i.UI_Measure_Task                        0x080057c0   Section        0  ui_measure.o(i.UI_Measure_Task)
    i.UsageFault_Handler                     0x08005a14   Section        0  n32g430_it.o(i.UsageFault_Handler)
    i.Write_I2C_Byte                         0x08005a18   Section        0  i2c.o(i.Write_I2C_Byte)
    i.Write_IIC                              0x08005a84   Section        0  i2c.o(i.Write_IIC)
    i.__ARM_fpclassify                       0x08005ab2   Section        0  fpclassify.o(i.__ARM_fpclassify)
    i._is_digit                              0x08005ae2   Section        0  __printf_wp.o(i._is_digit)
    i.delay                                  0x08005af0   Section        0  i2c.o(i.delay)
    i.main                                   0x08005afc   Section        0  main.o(i.main)
    i.mcuRestart                             0x08005b64   Section        0  decoy.o(i.mcuRestart)
    locale$$code                             0x08005bb0   Section       44  lc_numeric_c.o(locale$$code)
    x$fpl$d2f                                0x08005bdc   Section       98  d2f.o(x$fpl$d2f)
    $v0                                      0x08005bdc   Number         0  d2f.o(x$fpl$d2f)
    x$fpl$ddiv                               0x08005c40   Section      688  ddiv.o(x$fpl$ddiv)
    $v0                                      0x08005c40   Number         0  ddiv.o(x$fpl$ddiv)
    ddiv_entry                               0x08005c47   Thumb Code     0  ddiv.o(x$fpl$ddiv)
    x$fpl$dfltu                              0x08005ef0   Section       38  dflt_clz.o(x$fpl$dfltu)
    $v0                                      0x08005ef0   Number         0  dflt_clz.o(x$fpl$dfltu)
    x$fpl$dmul                               0x08005f18   Section      340  dmul.o(x$fpl$dmul)
    $v0                                      0x08005f18   Number         0  dmul.o(x$fpl$dmul)
    x$fpl$dnaninf                            0x0800606c   Section      156  dnaninf.o(x$fpl$dnaninf)
    $v0                                      0x0800606c   Number         0  dnaninf.o(x$fpl$dnaninf)
    x$fpl$dretinf                            0x08006108   Section       12  dretinf.o(x$fpl$dretinf)
    $v0                                      0x08006108   Number         0  dretinf.o(x$fpl$dretinf)
    x$fpl$f2d                                0x08006114   Section       86  f2d.o(x$fpl$f2d)
    $v0                                      0x08006114   Number         0  f2d.o(x$fpl$f2d)
    x$fpl$fnaninf                            0x0800616a   Section      140  fnaninf.o(x$fpl$fnaninf)
    $v0                                      0x0800616a   Number         0  fnaninf.o(x$fpl$fnaninf)
    x$fpl$fpinit                             0x080061f6   Section       10  fpinit.o(x$fpl$fpinit)
    $v0                                      0x080061f6   Number         0  fpinit.o(x$fpl$fpinit)
    x$fpl$fretinf                            0x08006200   Section       10  fretinf.o(x$fpl$fretinf)
    $v0                                      0x08006200   Number         0  fretinf.o(x$fpl$fretinf)
    x$fpl$printf1                            0x0800620a   Section        4  printf1.o(x$fpl$printf1)
    $v0                                      0x0800620a   Number         0  printf1.o(x$fpl$printf1)
    .constdata                               0x0800620e   Section       64  n32g430_rcc.o(.constdata)
    x$fpl$usenofp                            0x0800620e   Section        0  usenofp.o(x$fpl$usenofp)
    APBAHBPresTable                          0x0800620e   Data          16  n32g430_rcc.o(.constdata)
    ADCHCLKPresTable                         0x0800621e   Data          16  n32g430_rcc.o(.constdata)
    ADCPLLCLKPresTable                       0x0800622e   Data          32  n32g430_rcc.o(.constdata)
    .constdata                               0x0800624e   Section    13300  lcd.o(.constdata)
    .constdata                               0x08009642   Section     6400  ui.o(.constdata)
    .constdata                               0x0800af42   Section        8  ui_adjust.o(.constdata)
    .constdata                               0x0800af4c   Section      148  bigflt0.o(.constdata)
    tenpwrs_x                                0x0800af4c   Data          60  bigflt0.o(.constdata)
    tenpwrs_i                                0x0800af88   Data          64  bigflt0.o(.constdata)
    .conststring                             0x0800afe0   Section       29  ui.o(.conststring)
    .conststring                             0x0800b000   Section       86  ui_adjust.o(.conststring)
    locale$$data                             0x0800b078   Section       28  lc_numeric_c.o(locale$$data)
    __lcnum_c_name                           0x0800b07c   Data           2  lc_numeric_c.o(locale$$data)
    __lcnum_c_start                          0x0800b084   Data           0  lc_numeric_c.o(locale$$data)
    __lcnum_c_point                          0x0800b090   Data           0  lc_numeric_c.o(locale$$data)
    __lcnum_c_thousands                      0x0800b092   Data           0  lc_numeric_c.o(locale$$data)
    __lcnum_c_grouping                       0x0800b093   Data           0  lc_numeric_c.o(locale$$data)
    __lcnum_c_end                            0x0800b094   Data           0  lc_numeric_c.o(locale$$data)
    .data                                    0x20000000   Section        4  system_n32g430.o(.data)
    .data                                    0x20000004   Section        5  main.o(.data)
    cnt                                      0x20000004   Data           4  main.o(.data)
    .data                                    0x20000009   Section        3  keyio.o(.data)
    sg_arrKeyState                           0x20000009   Data           3  keyio.o(.data)
    .data                                    0x2000000c   Section       16  menu.o(.data)
    sg_tMenuManage                           0x2000000c   Data           8  menu.o(.data)
    sg_currMenuDepth                         0x20000014   Data           1  menu.o(.data)
    Location                                 0x20000018   Data           4  menu.o(.data)
    .data                                    0x2000001c   Section       53  ui.o(.data)
    cnt                                      0x20000050   Data           1  ui.o(.data)
    .data                                    0x20000051   Section        2  ui_measure.o(.data)
    .data                                    0x20000054   Section      414  ui_adjust.o(.data)
    cnt                                      0x200001f0   Data           1  ui_adjust.o(.data)
    cnt                                      0x200001f1   Data           1  ui_adjust.o(.data)
    .bss                                     0x200001f4   Section       32  adc.o(.bss)
    .bss                                     0x20000214   Section       18  spi.o(.bss)
    .bss                                     0x20000228   Section       96  fs2711.o(.bss)
    .bss                                     0x20000288   Section       14  flash.o(.bss)
    .bss                                     0x20000298   Section       48  key.o(.bss)
    sg_tKeyManage                            0x20000298   Data          48  key.o(.bss)
    .bss                                     0x200002c8   Section      320  menu.o(.bss)
    sg_arrMenuCtrl                           0x200002c8   Data         320  menu.o(.bss)
    .bss                                     0x20000408   Section      112  ui_adjust.o(.bss)
    .bss                                     0x20000478   Section       96  libspace.o(.bss)
    HEAP                                     0x200004d8   Section      768  startup_n32g430.o(HEAP)
    Heap_Mem                                 0x200004d8   Data         768  startup_n32g430.o(HEAP)
    STACK                                    0x200007d8   Section     5376  startup_n32g430.o(STACK)
    Stack_Mem                                0x200007d8   Data        5376  startup_n32g430.o(STACK)
    __initial_sp                             0x20001cd8   Data           0  startup_n32g430.o(STACK)

    Global Symbols

    Symbol Name                              Value     Ov Type        Size  Object(Section)

    BuildAttributes$$THM_ISAv4$E$P$D$K$B$S$7EM$VFPi3$EXTD16$VFPS$VFMA$PE$A:L22UL41UL21$X:L11$S22US41US21$IEEE1$IW$USESV6$~STKCKD$USESV7$~SHL$OTIME$ROPI$IEEEJ$EBA8$UX$STANDARDLIB$REQ8$PRES8$EABIv2 0x00000000   Number         0  anon$$obj.o ABSOLUTE
    __ARM_use_no_argv                        0x00000000   Number         0  main.o ABSOLUTE
    _printf_flags                            0x00000000   Number         0  printf_stubs.o ABSOLUTE
    _printf_return_value                     0x00000000   Number         0  printf_stubs.o ABSOLUTE
    _printf_sizespec                         0x00000000   Number         0  printf_stubs.o ABSOLUTE
    _printf_widthprec                        0x00000000   Number         0  printf_stubs.o ABSOLUTE
    __ARM_exceptions_init                     - Undefined Weak Reference
    __alloca_initialize                       - Undefined Weak Reference
    __arm_preinit_                            - Undefined Weak Reference
    __cpp_initialize__aeabi_                  - Undefined Weak Reference
    __cxa_finalize                            - Undefined Weak Reference
    __sigvec_lookup                           - Undefined Weak Reference
    _atexit_init                              - Undefined Weak Reference
    _call_atexit_fns                          - Undefined Weak Reference
    _clock_init                               - Undefined Weak Reference
    _fp_trap_init                             - Undefined Weak Reference
    _fp_trap_shutdown                         - Undefined Weak Reference
    _get_lc_collate                           - Undefined Weak Reference
    _get_lc_ctype                             - Undefined Weak Reference
    _get_lc_monetary                          - Undefined Weak Reference
    _get_lc_time                              - Undefined Weak Reference
    _getenv_init                              - Undefined Weak Reference
    _handle_redirection                       - Undefined Weak Reference
    _init_alloc                               - Undefined Weak Reference
    _init_user_alloc                          - Undefined Weak Reference
    _initio                                   - Undefined Weak Reference
    _printf_post_padding                      - Undefined Weak Reference
    _printf_pre_padding                       - Undefined Weak Reference
    _rand_init                                - Undefined Weak Reference
    _signal_finish                            - Undefined Weak Reference
    _signal_init                              - Undefined Weak Reference
    _terminate_alloc                          - Undefined Weak Reference
    _terminate_user_alloc                     - Undefined Weak Reference
    _terminateio                              - Undefined Weak Reference
    __Vectors_Size                           0x00000114   Number         0  startup_n32g430.o ABSOLUTE
    __Vectors                                0x08000000   Data           4  startup_n32g430.o(RESET)
    __Vectors_End                            0x08000114   Data           0  startup_n32g430.o(RESET)
    __main                                   0x08000115   Thumb Code     8  __main.o(!!!main)
    __scatterload                            0x0800011d   Thumb Code     0  __scatter.o(!!!scatter)
    __scatterload_rt2                        0x0800011d   Thumb Code    44  __scatter.o(!!!scatter)
    __scatterload_rt2_thumb_only             0x0800011d   Thumb Code     0  __scatter.o(!!!scatter)
    __scatterload_null                       0x0800012b   Thumb Code     0  __scatter.o(!!!scatter)
    __decompress                             0x08000151   Thumb Code    90  __dczerorl2.o(!!dczerorl2)
    __decompress1                            0x08000151   Thumb Code     0  __dczerorl2.o(!!dczerorl2)
    __scatterload_zeroinit                   0x080001ad   Thumb Code    28  __scatter_zi.o(!!handler_zi)
    _printf_f                                0x080001c9   Thumb Code     0  _printf_f.o(.ARM.Collect$$_printf_percent$$00000003)
    _printf_percent                          0x080001c9   Thumb Code     0  _printf_percent.o(.ARM.Collect$$_printf_percent$$00000000)
    _printf_percent_end                      0x080001cf   Thumb Code     0  _printf_percent_end.o(.ARM.Collect$$_printf_percent$$00000017)
    __rt_lib_init                            0x080001d3   Thumb Code     0  libinit.o(.ARM.Collect$$libinit$$00000000)
    __rt_lib_init_fp_1                       0x080001d5   Thumb Code     0  libinit2.o(.ARM.Collect$$libinit$$00000001)
    __rt_lib_init_heap_1                     0x080001d9   Thumb Code     0  libinit2.o(.ARM.Collect$$libinit$$0000000A)
    __rt_lib_init_lc_common                  0x080001d9   Thumb Code     0  libinit2.o(.ARM.Collect$$libinit$$0000000F)
    __rt_lib_init_preinit_1                  0x080001d9   Thumb Code     0  libinit2.o(.ARM.Collect$$libinit$$00000004)
    __rt_lib_init_rand_1                     0x080001d9   Thumb Code     0  libinit2.o(.ARM.Collect$$libinit$$0000000E)
    __rt_lib_init_user_alloc_1               0x080001d9   Thumb Code     0  libinit2.o(.ARM.Collect$$libinit$$0000000C)
    __rt_lib_init_lc_collate_1               0x080001df   Thumb Code     0  libinit2.o(.ARM.Collect$$libinit$$00000011)
    __rt_lib_init_lc_ctype_1                 0x080001df   Thumb Code     0  libinit2.o(.ARM.Collect$$libinit$$00000013)
    __rt_lib_init_lc_monetary_1              0x080001df   Thumb Code     0  libinit2.o(.ARM.Collect$$libinit$$00000015)
    __rt_lib_init_lc_numeric_2               0x080001df   Thumb Code     0  libinit2.o(.ARM.Collect$$libinit$$00000016)
    __rt_lib_init_alloca_1                   0x080001e9   Thumb Code     0  libinit2.o(.ARM.Collect$$libinit$$0000002E)
    __rt_lib_init_argv_1                     0x080001e9   Thumb Code     0  libinit2.o(.ARM.Collect$$libinit$$0000002C)
    __rt_lib_init_atexit_1                   0x080001e9   Thumb Code     0  libinit2.o(.ARM.Collect$$libinit$$0000001B)
    __rt_lib_init_clock_1                    0x080001e9   Thumb Code     0  libinit2.o(.ARM.Collect$$libinit$$00000021)
    __rt_lib_init_cpp_1                      0x080001e9   Thumb Code     0  libinit2.o(.ARM.Collect$$libinit$$00000032)
    __rt_lib_init_exceptions_1               0x080001e9   Thumb Code     0  libinit2.o(.ARM.Collect$$libinit$$00000030)
    __rt_lib_init_fp_trap_1                  0x080001e9   Thumb Code     0  libinit2.o(.ARM.Collect$$libinit$$0000001F)
    __rt_lib_init_getenv_1                   0x080001e9   Thumb Code     0  libinit2.o(.ARM.Collect$$libinit$$00000023)
    __rt_lib_init_lc_numeric_1               0x080001e9   Thumb Code     0  libinit2.o(.ARM.Collect$$libinit$$00000017)
    __rt_lib_init_lc_time_1                  0x080001e9   Thumb Code     0  libinit2.o(.ARM.Collect$$libinit$$00000019)
    __rt_lib_init_return                     0x080001e9   Thumb Code     0  libinit2.o(.ARM.Collect$$libinit$$00000033)
    __rt_lib_init_signal_1                   0x080001e9   Thumb Code     0  libinit2.o(.ARM.Collect$$libinit$$0000001D)
    __rt_lib_init_stdio_1                    0x080001e9   Thumb Code     0  libinit2.o(.ARM.Collect$$libinit$$00000025)
    __rt_lib_shutdown                        0x080001eb   Thumb Code     0  libshutdown.o(.ARM.Collect$$libshutdown$$00000000)
    __rt_lib_shutdown_cpp_1                  0x080001ed   Thumb Code     0  libshutdown2.o(.ARM.Collect$$libshutdown$$00000002)
    __rt_lib_shutdown_fp_trap_1              0x080001ed   Thumb Code     0  libshutdown2.o(.ARM.Collect$$libshutdown$$00000007)
    __rt_lib_shutdown_heap_1                 0x080001ed   Thumb Code     0  libshutdown2.o(.ARM.Collect$$libshutdown$$0000000F)
    __rt_lib_shutdown_return                 0x080001ed   Thumb Code     0  libshutdown2.o(.ARM.Collect$$libshutdown$$00000010)
    __rt_lib_shutdown_signal_1               0x080001ed   Thumb Code     0  libshutdown2.o(.ARM.Collect$$libshutdown$$0000000A)
    __rt_lib_shutdown_stdio_1                0x080001ed   Thumb Code     0  libshutdown2.o(.ARM.Collect$$libshutdown$$00000004)
    __rt_lib_shutdown_user_alloc_1           0x080001ed   Thumb Code     0  libshutdown2.o(.ARM.Collect$$libshutdown$$0000000C)
    __rt_entry                               0x080001ef   Thumb Code     0  __rtentry.o(.ARM.Collect$$rtentry$$00000000)
    __rt_entry_presh_1                       0x080001ef   Thumb Code     0  __rtentry2.o(.ARM.Collect$$rtentry$$00000002)
    __rt_entry_sh                            0x080001ef   Thumb Code     0  __rtentry4.o(.ARM.Collect$$rtentry$$00000004)
    __rt_entry_li                            0x080001f5   Thumb Code     0  __rtentry2.o(.ARM.Collect$$rtentry$$0000000A)
    __rt_entry_postsh_1                      0x080001f5   Thumb Code     0  __rtentry2.o(.ARM.Collect$$rtentry$$00000009)
    __rt_entry_main                          0x080001f9   Thumb Code     0  __rtentry2.o(.ARM.Collect$$rtentry$$0000000D)
    __rt_entry_postli_1                      0x080001f9   Thumb Code     0  __rtentry2.o(.ARM.Collect$$rtentry$$0000000C)
    __rt_exit                                0x08000201   Thumb Code     0  rtexit.o(.ARM.Collect$$rtexit$$00000000)
    __rt_exit_ls                             0x08000203   Thumb Code     0  rtexit2.o(.ARM.Collect$$rtexit$$00000003)
    __rt_exit_prels_1                        0x08000203   Thumb Code     0  rtexit2.o(.ARM.Collect$$rtexit$$00000002)
    __rt_exit_exit                           0x08000207   Thumb Code     0  rtexit2.o(.ARM.Collect$$rtexit$$00000004)
    Reset_Handler                            0x0800020d   Thumb Code     8  startup_n32g430.o(.text)
    PendSV_Handler                           0x08000223   Thumb Code     2  startup_n32g430.o(.text)
    ADC_IRQHandler                           0x08000227   Thumb Code     0  startup_n32g430.o(.text)
    CAN_RX0_IRQHandler                       0x08000227   Thumb Code     0  startup_n32g430.o(.text)
    CAN_RX1_IRQHandler                       0x08000227   Thumb Code     0  startup_n32g430.o(.text)
    CAN_SCE_IRQHandler                       0x08000227   Thumb Code     0  startup_n32g430.o(.text)
    CAN_TX_IRQHandler                        0x08000227   Thumb Code     0  startup_n32g430.o(.text)
    COMP_1_2_3_IRQHandler                    0x08000227   Thumb Code     0  startup_n32g430.o(.text)
    DMA_Channel1_IRQHandler                  0x08000227   Thumb Code     0  startup_n32g430.o(.text)
    DMA_Channel2_IRQHandler                  0x08000227   Thumb Code     0  startup_n32g430.o(.text)
    DMA_Channel3_IRQHandler                  0x08000227   Thumb Code     0  startup_n32g430.o(.text)
    DMA_Channel4_IRQHandler                  0x08000227   Thumb Code     0  startup_n32g430.o(.text)
    DMA_Channel5_IRQHandler                  0x08000227   Thumb Code     0  startup_n32g430.o(.text)
    DMA_Channel6_IRQHandler                  0x08000227   Thumb Code     0  startup_n32g430.o(.text)
    DMA_Channel7_IRQHandler                  0x08000227   Thumb Code     0  startup_n32g430.o(.text)
    DMA_Channel8_IRQHandler                  0x08000227   Thumb Code     0  startup_n32g430.o(.text)
    EXTI0_IRQHandler                         0x08000227   Thumb Code     0  startup_n32g430.o(.text)
    EXTI15_10_IRQHandler                     0x08000227   Thumb Code     0  startup_n32g430.o(.text)
    EXTI1_IRQHandler                         0x08000227   Thumb Code     0  startup_n32g430.o(.text)
    EXTI2_IRQHandler                         0x08000227   Thumb Code     0  startup_n32g430.o(.text)
    EXTI3_IRQHandler                         0x08000227   Thumb Code     0  startup_n32g430.o(.text)
    EXTI4_IRQHandler                         0x08000227   Thumb Code     0  startup_n32g430.o(.text)
    EXTI9_5_IRQHandler                       0x08000227   Thumb Code     0  startup_n32g430.o(.text)
    FLASH_IRQHandler                         0x08000227   Thumb Code     0  startup_n32g430.o(.text)
    I2C1_ER_IRQHandler                       0x08000227   Thumb Code     0  startup_n32g430.o(.text)
    I2C1_EV_IRQHandler                       0x08000227   Thumb Code     0  startup_n32g430.o(.text)
    I2C2_ER_IRQHandler                       0x08000227   Thumb Code     0  startup_n32g430.o(.text)
    I2C2_EV_IRQHandler                       0x08000227   Thumb Code     0  startup_n32g430.o(.text)
    LPTIM_WKUP_IRQHandler                    0x08000227   Thumb Code     0  startup_n32g430.o(.text)
    MMU_IRQHandler                           0x08000227   Thumb Code     0  startup_n32g430.o(.text)
    PVD_IRQHandler                           0x08000227   Thumb Code     0  startup_n32g430.o(.text)
    RCC_IRQHandler                           0x08000227   Thumb Code     0  startup_n32g430.o(.text)
    RTCAlarm_IRQHandler                      0x08000227   Thumb Code     0  startup_n32g430.o(.text)
    RTC_TAMPER_STAMP_IRQHandler              0x08000227   Thumb Code     0  startup_n32g430.o(.text)
    RTC_WKUP_IRQHandler                      0x08000227   Thumb Code     0  startup_n32g430.o(.text)
    SPI1_IRQHandler                          0x08000227   Thumb Code     0  startup_n32g430.o(.text)
    SPI2_IRQHandler                          0x08000227   Thumb Code     0  startup_n32g430.o(.text)
    TIM1_BRK_IRQHandler                      0x08000227   Thumb Code     0  startup_n32g430.o(.text)
    TIM1_CC_IRQHandler                       0x08000227   Thumb Code     0  startup_n32g430.o(.text)
    TIM1_TRG_COM_IRQHandler                  0x08000227   Thumb Code     0  startup_n32g430.o(.text)
    TIM1_UP_IRQHandler                       0x08000227   Thumb Code     0  startup_n32g430.o(.text)
    TIM2_IRQHandler                          0x08000227   Thumb Code     0  startup_n32g430.o(.text)
    TIM3_IRQHandler                          0x08000227   Thumb Code     0  startup_n32g430.o(.text)
    TIM4_IRQHandler                          0x08000227   Thumb Code     0  startup_n32g430.o(.text)
    TIM5_IRQHandler                          0x08000227   Thumb Code     0  startup_n32g430.o(.text)
    TIM8_BRK_IRQHandler                      0x08000227   Thumb Code     0  startup_n32g430.o(.text)
    TIM8_CC_IRQHandler                       0x08000227   Thumb Code     0  startup_n32g430.o(.text)
    TIM8_TRG_COM_IRQHandler                  0x08000227   Thumb Code     0  startup_n32g430.o(.text)
    TIM8_UP_IRQHandler                       0x08000227   Thumb Code     0  startup_n32g430.o(.text)
    UART3_IRQHandler                         0x08000227   Thumb Code     0  startup_n32g430.o(.text)
    UART4_IRQHandler                         0x08000227   Thumb Code     0  startup_n32g430.o(.text)
    USART1_IRQHandler                        0x08000227   Thumb Code     0  startup_n32g430.o(.text)
    USART2_IRQHandler                        0x08000227   Thumb Code     0  startup_n32g430.o(.text)
    WWDG_IRQHandler                          0x08000227   Thumb Code     0  startup_n32g430.o(.text)
    __user_initial_stackheap                 0x08000229   Thumb Code     0  startup_n32g430.o(.text)
    __2sprintf                               0x0800024d   Thumb Code    34  noretval__2sprintf.o(.text)
    __printf                                 0x08000275   Thumb Code   270  __printf_wp.o(.text)
    strlen                                   0x08000383   Thumb Code    62  strlen.o(.text)
    __aeabi_memclr                           0x080003c1   Thumb Code     0  rt_memclr.o(.text)
    __rt_memclr                              0x080003c1   Thumb Code    68  rt_memclr.o(.text)
    _memset                                  0x080003c5   Thumb Code     0  rt_memclr.o(.text)
    __aeabi_memclr4                          0x08000405   Thumb Code     0  rt_memclr_w.o(.text)
    __aeabi_memclr8                          0x08000405   Thumb Code     0  rt_memclr_w.o(.text)
    __rt_memclr_w                            0x08000405   Thumb Code    78  rt_memclr_w.o(.text)
    _memset_w                                0x08000409   Thumb Code     0  rt_memclr_w.o(.text)
    strcmp                                   0x08000455   Thumb Code   128  strcmpv7m.o(.text)
    __use_two_region_memory                  0x080004d5   Thumb Code     2  heapauxi.o(.text)
    __rt_heap_escrow$2region                 0x080004d7   Thumb Code     2  heapauxi.o(.text)
    __rt_heap_expand$2region                 0x080004d9   Thumb Code     2  heapauxi.o(.text)
    __lib_sel_fp_printf                      0x080004db   Thumb Code     2  _printf_fp_dec.o(.text)
    _printf_fp_dec_real                      0x08000689   Thumb Code   620  _printf_fp_dec.o(.text)
    _printf_char_common                      0x080008ff   Thumb Code    32  _printf_char_common.o(.text)
    _sputc                                   0x08000925   Thumb Code    10  _sputc.o(.text)
    __rt_locale                              0x08000931   Thumb Code     8  rt_locale_intlibspace.o(.text)
    _ll_udiv10                               0x08000939   Thumb Code   138  lludiv10.o(.text)
    _printf_fp_infnan                        0x080009c5   Thumb Code   112  _printf_fp_infnan.o(.text)
    _btod_etento                             0x08000a45   Thumb Code   216  bigflt0.o(.text)
    __user_libspace                          0x08000b21   Thumb Code     8  libspace.o(.text)
    __user_perproc_libspace                  0x08000b21   Thumb Code     0  libspace.o(.text)
    __user_perthread_libspace                0x08000b21   Thumb Code     0  libspace.o(.text)
    __user_setup_stackheap                   0x08000b29   Thumb Code    74  sys_stackheap_outer.o(.text)
    exit                                     0x08000b73   Thumb Code    18  exit.o(.text)
    _sys_exit                                0x08000b85   Thumb Code     8  sys_exit.o(.text)
    __I$use$semihosting                      0x08000b91   Thumb Code     0  use_no_semi.o(.text)
    __use_no_semihosting_swi                 0x08000b91   Thumb Code     2  use_no_semi.o(.text)
    __semihosting_library_function           0x08000b93   Thumb Code     0  indicate_semi.o(.text)
    _btod_d2e                                0x08000b93   Thumb Code    62  btod.o(CL$$btod_d2e)
    _d2e_denorm_low                          0x08000bd1   Thumb Code    70  btod.o(CL$$btod_d2e_denorm_low)
    _d2e_norm_op1                            0x08000c17   Thumb Code    96  btod.o(CL$$btod_d2e_norm_op1)
    __btod_div_common                        0x08000c77   Thumb Code   696  btod.o(CL$$btod_div_common)
    _e2e                                     0x08000faf   Thumb Code   198  btod.o(CL$$btod_e2e)
    _btod_ediv                               0x08001075   Thumb Code    40  btod.o(CL$$btod_ediv)
    _btod_emul                               0x0800109d   Thumb Code    40  btod.o(CL$$btod_emul)
    __btod_mult_common                       0x080010c5   Thumb Code   580  btod.o(CL$$btod_mult_common)
    ADC_AHB_Clock_Mode_Config                0x08001309   Thumb Code    14  n32g430_adc.o(i.ADC_AHB_Clock_Mode_Config)
    ADC_CLK_Init                             0x0800131d   Thumb Code    36  adc.o(i.ADC_CLK_Init)
    ADC_Calibration_Operation                0x08001341   Thumb Code    68  n32g430_adc.o(i.ADC_Calibration_Operation)
    ADC_Channel_Sample_Time_Config           0x08001389   Thumb Code   134  n32g430_adc.o(i.ADC_Channel_Sample_Time_Config)
    ADC_Clock_Mode_Config                    0x08001415   Thumb Code    40  n32g430_adc.o(i.ADC_Clock_Mode_Config)
    ADC_Configuration                        0x0800143d   Thumb Code   176  adc.o(i.ADC_Configuration)
    ADC_Continue_Conversion_Disable          0x080014ed   Thumb Code    14  n32g430_adc.o(i.ADC_Continue_Conversion_Disable)
    ADC_Continue_Conversion_Enable           0x08001501   Thumb Code    14  n32g430_adc.o(i.ADC_Continue_Conversion_Enable)
    ADC_DMA_Transfer_Enable                  0x08001515   Thumb Code    14  n32g430_adc.o(i.ADC_DMA_Transfer_Enable)
    ADC_Data_Alignment_Config                0x08001529   Thumb Code    22  n32g430_adc.o(i.ADC_Data_Alignment_Config)
    ADC_Flag_Status_Clear                    0x08001545   Thumb Code    12  n32g430_adc.o(i.ADC_Flag_Status_Clear)
    ADC_Flag_Status_Get                      0x08001555   Thumb Code    40  n32g430_adc.o(i.ADC_Flag_Status_Get)
    ADC_Initializes                          0x08001581   Thumb Code    52  n32g430_adc.o(i.ADC_Initializes)
    ADC_Multichannels_Disable                0x080015b5   Thumb Code    14  n32g430_adc.o(i.ADC_Multichannels_Disable)
    ADC_Multichannels_Enable                 0x080015c9   Thumb Code    14  n32g430_adc.o(i.ADC_Multichannels_Enable)
    ADC_ON                                   0x080015dd   Thumb Code    14  n32g430_adc.o(i.ADC_ON)
    ADC_PLL_Clock_Mode_Config                0x080015f1   Thumb Code    14  n32g430_adc.o(i.ADC_PLL_Clock_Mode_Config)
    ADC_Regular_Channels_Number_Config       0x08001605   Thumb Code    22  n32g430_adc.o(i.ADC_Regular_Channels_Number_Config)
    ADC_Regular_Channels_Software_Conversion_Operation 0x08001621   Thumb Code    66  n32g430_adc.o(i.ADC_Regular_Channels_Software_Conversion_Operation)
    ADC_Regular_Group_External_Trigger_Source_Config 0x08001669   Thumb Code    22  n32g430_adc.o(i.ADC_Regular_Group_External_Trigger_Source_Config)
    ADC_Regular_Sequence_Conversion_Number_Config 0x08001685   Thumb Code   148  n32g430_adc.o(i.ADC_Regular_Sequence_Conversion_Number_Config)
    ADC_Temperature_Sensor_And_Vrefint_Channel_Enable 0x0800171d   Thumb Code    30  n32g430_adc.o(i.ADC_Temperature_Sensor_And_Vrefint_Channel_Enable)
    BusFault_Handler                         0x08001745   Thumb Code     4  n32g430_it.o(i.BusFault_Handler)
    DMA_Buffer_Size_Config                   0x080017a9   Thumb Code     4  n32g430_dma.o(i.DMA_Buffer_Size_Config)
    DMA_Channel_Enable                       0x080017ad   Thumb Code    10  n32g430_dma.o(i.DMA_Channel_Enable)
    DMA_Channel_Request_Remap                0x080017b7   Thumb Code     4  n32g430_dma.o(i.DMA_Channel_Request_Remap)
    DMA_Circular_Mode_Config                 0x080017bb   Thumb Code    16  n32g430_dma.o(i.DMA_Circular_Mode_Config)
    DMA_Configuration                        0x080017cd   Thumb Code    90  adc.o(i.DMA_Configuration)
    DMA_Destination_Config                   0x08001835   Thumb Code    16  n32g430_dma.o(i.DMA_Destination_Config)
    DMA_Initializes                          0x08001845   Thumb Code    96  n32g430_dma.o(i.DMA_Initializes)
    DMA_Memory_2_Memory_Config               0x080018a5   Thumb Code    16  n32g430_dma.o(i.DMA_Memory_2_Memory_Config)
    DMA_Memory_Addr_Increment_Config         0x080018b5   Thumb Code    16  n32g430_dma.o(i.DMA_Memory_Addr_Increment_Config)
    DMA_Memory_Address_Config                0x080018c5   Thumb Code     4  n32g430_dma.o(i.DMA_Memory_Address_Config)
    DMA_Memory_Data_Width_Config             0x080018c9   Thumb Code    16  n32g430_dma.o(i.DMA_Memory_Data_Width_Config)
    DMA_Peripheral_Addr_Increment_Config     0x080018d9   Thumb Code    16  n32g430_dma.o(i.DMA_Peripheral_Addr_Increment_Config)
    DMA_Peripheral_Address_Config            0x080018e9   Thumb Code     4  n32g430_dma.o(i.DMA_Peripheral_Address_Config)
    DMA_Peripheral_Data_Width_Config         0x080018ed   Thumb Code    16  n32g430_dma.o(i.DMA_Peripheral_Data_Width_Config)
    DMA_Priority_Config                      0x080018fd   Thumb Code    16  n32g430_dma.o(i.DMA_Priority_Config)
    DMA_Structure_Initializes                0x0800190d   Thumb Code    26  n32g430_dma.o(i.DMA_Structure_Initializes)
    DebugMon_Handler                         0x08001927   Thumb Code     2  n32g430_it.o(i.DebugMon_Handler)
    EnableNewProtocol                        0x08001941   Thumb Code   218  decoy.o(i.EnableNewProtocol)
    FLASH_Flag_Status_Clear                  0x08001a25   Thumb Code    12  n32g430_flash.o(i.FLASH_Flag_Status_Clear)
    FLASH_Last_Operation_Wait                0x08001a35   Thumb Code    38  n32g430_flash.o(i.FLASH_Last_Operation_Wait)
    FLASH_Latency_Set                        0x08001a5d   Thumb Code    18  n32g430_flash.o(i.FLASH_Latency_Set)
    FLASH_Lock                               0x08001a75   Thumb Code    14  n32g430_flash.o(i.FLASH_Lock)
    FLASH_One_Page_Erase                     0x08001a89   Thumb Code    76  n32g430_flash.o(i.FLASH_One_Page_Erase)
    FLASH_Status_Get                         0x08001aed   Thumb Code    48  n32g430_flash.o(i.FLASH_Status_Get)
    FLASH_Unlock                             0x08001b21   Thumb Code    12  n32g430_flash.o(i.FLASH_Unlock)
    FLASH_Word_Program                       0x08001b39   Thumb Code    76  n32g430_flash.o(i.FLASH_Word_Program)
    FS2711_Debug                             0x08001b89   Thumb Code     4  fs2711.o(i.FS2711_Debug)
    FS2711_Enable_Protocol                   0x08001b8d   Thumb Code    26  fs2711.o(i.FS2711_Enable_Protocol)
    FS2711_Enable_Voltage_Current            0x08001ba7   Thumb Code    12  fs2711.o(i.FS2711_Enable_Voltage_Current)
    FS2711_GPIO_Init                         0x08001bb5   Thumb Code    58  i2c.o(i.FS2711_GPIO_Init)
    FS2711_Get_PPS_Num                       0x08001bf5   Thumb Code    34  fs2711.o(i.FS2711_Get_PPS_Num)
    FS2711_Get_State                         0x08001c1d   Thumb Code   550  fs2711.o(i.FS2711_Get_State)
    FS2711_Port_Disconnect                   0x08001e49   Thumb Code    20  fs2711.o(i.FS2711_Port_Disconnect)
    FS2711_Port_Reset                        0x08001e5d   Thumb Code    42  fs2711.o(i.FS2711_Port_Reset)
    FS2711_Read                              0x08001e87   Thumb Code    18  fs2711.o(i.FS2711_Read)
    FS2711_SCP_Calc                          0x08001e99   Thumb Code    64  fs2711.o(i.FS2711_SCP_Calc)
    FS2711_Select_Protocol                   0x08001ed9   Thumb Code    28  fs2711.o(i.FS2711_Select_Protocol)
    FS2711_Select_Voltage_Current            0x08001f21   Thumb Code   816  fs2711.o(i.FS2711_Select_Voltage_Current)
    FS2711_System_Reset                      0x080022c5   Thumb Code    12  fs2711.o(i.FS2711_System_Reset)
    FS2711_Write                             0x080022d1   Thumb Code    16  fs2711.o(i.FS2711_Write)
    Flash_Read                               0x080022e1   Thumb Code    86  flash.o(i.Flash_Read)
    Flash_Write                              0x08002341   Thumb Code   110  flash.o(i.Flash_Write)
    GPIO_Alternate_Set                       0x080023b9   Thumb Code    64  n32g430_gpio.o(i.GPIO_Alternate_Set)
    GPIO_Configuration                       0x080023f9   Thumb Code    30  adc.o(i.GPIO_Configuration)
    GPIO_Driver_Set                          0x0800241d   Thumb Code    28  n32g430_gpio.o(i.GPIO_Driver_Set)
    GPIO_Input_Pin_Data_Get                  0x08002439   Thumb Code    16  n32g430_gpio.o(i.GPIO_Input_Pin_Data_Get)
    GPIO_Mode_Set                            0x08002449   Thumb Code    68  n32g430_gpio.o(i.GPIO_Mode_Set)
    GPIO_Peripheral_Initialize               0x0800248d   Thumb Code    86  n32g430_gpio.o(i.GPIO_Peripheral_Initialize)
    GPIO_Pins_Reset                          0x080024e3   Thumb Code     4  n32g430_gpio.o(i.GPIO_Pins_Reset)
    GPIO_Pins_Set                            0x080024e7   Thumb Code     4  n32g430_gpio.o(i.GPIO_Pins_Set)
    GPIO_Pull_Set                            0x080024eb   Thumb Code    28  n32g430_gpio.o(i.GPIO_Pull_Set)
    GPIO_SlewRate_Set                        0x08002507   Thumb Code    24  n32g430_gpio.o(i.GPIO_SlewRate_Set)
    GPIO_Structure_Initialize                0x0800251f   Thumb Code    24  n32g430_gpio.o(i.GPIO_Structure_Initialize)
    Get_Average_ADC_Converted_Value          0x08002539   Thumb Code   408  adc.o(i.Get_Average_ADC_Converted_Value)
    HardFault_Handler                        0x080026ed   Thumb Code     4  n32g430_it.o(i.HardFault_Handler)
    I2C_ReStart                              0x080026f1   Thumb Code    82  i2c.o(i.I2C_ReStart)
    I2C_Start                                0x08002749   Thumb Code    66  i2c.o(i.I2C_Start)
    I2C_Stop                                 0x08002791   Thumb Code    50  i2c.o(i.I2C_Stop)
    I2C_Wait_Ack                             0x080027c9   Thumb Code    34  i2c.o(i.I2C_Wait_Ack)
    Init_FS2711                              0x08002839   Thumb Code    56  decoy.o(i.Init_FS2711)
    IoKey_Init                               0x08002875   Thumb Code    26  keyio.o(i.IoKey_Init)
    IoKey_Read                               0x08002895   Thumb Code    16  keyio.o(i.IoKey_Read)
    IoKey_Scan                               0x080028a9   Thumb Code    66  keyio.o(i.IoKey_Scan)
    KEY_GetClickCnt                          0x080028f9   Thumb Code   120  key.o(i.KEY_GetClickCnt)
    KEY_GetPressTime                         0x08002975   Thumb Code    20  key.o(i.KEY_GetPressTime)
    KEY_Init                                 0x0800298d   Thumb Code    90  key.o(i.KEY_Init)
    KEY_Register                             0x080029ed   Thumb Code    14  key.o(i.KEY_Register)
    KEY_Scan                                 0x08002a01   Thumb Code   454  key.o(i.KEY_Scan)
    KEY_SetNotifyTime                        0x08002bcd   Thumb Code    14  key.o(i.KEY_SetNotifyTime)
    Key_Register_PD                          0x08002be1   Thumb Code    12  ui_adjust.o(i.Key_Register_PD)
    Key_Register_QC                          0x08002bf1   Thumb Code    12  ui_adjust.o(i.Key_Register_QC)
    Key_Start_Task                           0x08002c01   Thumb Code    28  ui.o(i.Key_Start_Task)
    LCD_Address_Set                          0x08002c29   Thumb Code    70  lcd_init.o(i.LCD_Address_Set)
    LCD_DrawPoint                            0x08002c6f   Thumb Code    28  lcd.o(i.LCD_DrawPoint)
    LCD_Fill                                 0x08002c8b   Thumb Code    74  lcd.o(i.LCD_Fill)
    LCD_GPIO_Init                            0x08002cd5   Thumb Code    56  lcd_init.o(i.LCD_GPIO_Init)
    LCD_Init                                 0x08002d11   Thumb Code   598  lcd_init.o(i.LCD_Init)
    LCD_Roll                                 0x08002f6d   Thumb Code    48  lcd.o(i.LCD_Roll)
    LCD_ShowChar                             0x08002f9d   Thumb Code   328  lcd.o(i.LCD_ShowChar)
    LCD_ShowPicture                          0x080030f5   Thumb Code   102  lcd.o(i.LCD_ShowPicture)
    LCD_ShowString                           0x0800315b   Thumb Code    66  lcd.o(i.LCD_ShowString)
    LCD_WR_DATA                              0x0800319d   Thumb Code    12  lcd_init.o(i.LCD_WR_DATA)
    LCD_WR_DATA8                             0x080031a9   Thumb Code    12  lcd_init.o(i.LCD_WR_DATA8)
    LCD_WR_REG                               0x080031b5   Thumb Code    32  lcd_init.o(i.LCD_WR_REG)
    LCD_Writ_Bus                             0x080031d9   Thumb Code    12  lcd_init.o(i.LCD_Writ_Bus)
    MemManage_Handler                        0x080031e5   Thumb Code     4  n32g430_it.o(i.MemManage_Handler)
    Menu_Bind                                0x080031e9   Thumb Code    50  menu.o(i.Menu_Bind)
    Menu_Enter                               0x08003221   Thumb Code   142  menu.o(i.Menu_Enter)
    Menu_Exit                                0x080032b5   Thumb Code   152  menu.o(i.Menu_Exit)
    Menu_Init                                0x08003351   Thumb Code    94  menu.o(i.Menu_Init)
    Menu_LimitShowListNum                    0x080033b9   Thumb Code    64  menu.o(i.Menu_LimitShowListNum)
    Menu_Reset                               0x080033f9   Thumb Code    56  menu.o(i.Menu_Reset)
    Menu_ResetItemsNum                       0x08003435   Thumb Code    12  menu.o(i.Menu_ResetItemsNum)
    Menu_SelectNext                          0x08003445   Thumb Code    84  menu.o(i.Menu_SelectNext)
    Menu_SelectPrevious                      0x0800349d   Thumb Code    74  menu.o(i.Menu_SelectPrevious)
    Menu_SetItemBeginLocation                0x080034ed   Thumb Code   104  menu.o(i.Menu_SetItemBeginLocation)
    Menu_SetShowBaseItem                     0x0800355d   Thumb Code     8  menu.o(i.Menu_SetShowBaseItem)
    Menu_ShortcutEnter                       0x08003569   Thumb Code    92  menu.o(i.Menu_ShortcutEnter)
    Menu_Task                                0x080035c9   Thumb Code   234  menu.o(i.Menu_Task)
    NMI_Handler                              0x080036b9   Thumb Code     2  n32g430_it.o(i.NMI_Handler)
    NVIC_Initializes                         0x080036bd   Thumb Code   100  misc.o(i.NVIC_Initializes)
    OnKeyActionProess                        0x08003755   Thumb Code   246  ui.o(i.OnKeyActionProess)
    OnKeyActionProessDown                    0x08003865   Thumb Code    36  ui.o(i.OnKeyActionProessDown)
    OnKeyActionProessUp                      0x0800388d   Thumb Code    34  ui.o(i.OnKeyActionProessUp)
    OnKeyOkPDProess                          0x080038b5   Thumb Code   194  ui_adjust.o(i.OnKeyOkPDProess)
    OnKeyOkQCProess                          0x08003989   Thumb Code   194  ui_adjust.o(i.OnKeyOkQCProess)
    OnPDFunction                             0x08003a5d   Thumb Code   190  ui_adjust.o(i.OnPDFunction)
    OnPDFunctionExit                         0x08003b39   Thumb Code    52  ui_adjust.o(i.OnPDFunctionExit)
    OnPDFunctionLoad                         0x08003b75   Thumb Code   120  ui_adjust.o(i.OnPDFunctionLoad)
    OnQCFunction                             0x08003bf9   Thumb Code   190  ui_adjust.o(i.OnQCFunction)
    OnQCFunctionExit                         0x08003cd5   Thumb Code    46  ui_adjust.o(i.OnQCFunctionExit)
    OnQCFunctionLoad                         0x08003d09   Thumb Code   212  ui_adjust.o(i.OnQCFunctionLoad)
    PD_Ok                                    0x08003df9   Thumb Code   256  ui_adjust.o(i.PD_Ok)
    PinInInitSDA                             0x08003f09   Thumb Code    38  i2c.o(i.PinInInitSDA)
    PinOutInitSDA                            0x08003f35   Thumb Code    38  i2c.o(i.PinOutInitSDA)
    QC_Ok                                    0x08003f61   Thumb Code   160  ui_adjust.o(i.QC_Ok)
    RCC_ADC_1M_Clock_Config                  0x0800400d   Thumb Code    24  n32g430_rcc.o(i.RCC_ADC_1M_Clock_Config)
    RCC_ADC_Hclk_Config                      0x08004029   Thumb Code    18  n32g430_rcc.o(i.RCC_ADC_Hclk_Config)
    RCC_ADC_Hclk_Enable                      0x08004041   Thumb Code    18  n32g430_rcc.o(i.RCC_ADC_Hclk_Enable)
    RCC_ADC_PLL_Clock_Disable                0x08004059   Thumb Code    14  n32g430_rcc.o(i.RCC_ADC_PLL_Clock_Disable)
    RCC_ADC_PLL_Clock_Prescaler_Enable       0x0800406d   Thumb Code    18  n32g430_rcc.o(i.RCC_ADC_PLL_Clock_Prescaler_Enable)
    RCC_AHB_Peripheral_Clock_Enable          0x08004085   Thumb Code    12  n32g430_rcc.o(i.RCC_AHB_Peripheral_Clock_Enable)
    RCC_APB1_Peripheral_Clock_Enable         0x08004095   Thumb Code    12  n32g430_rcc.o(i.RCC_APB1_Peripheral_Clock_Enable)
    RCC_APB2_Peripheral_Clock_Enable         0x080040a5   Thumb Code    12  n32g430_rcc.o(i.RCC_APB2_Peripheral_Clock_Enable)
    RCC_APB2_Peripheral_Reset                0x080040b5   Thumb Code    20  n32g430_rcc.o(i.RCC_APB2_Peripheral_Reset)
    RCC_Clocks_Frequencies_Value_Get         0x080040cd   Thumb Code   250  n32g430_rcc.o(i.RCC_Clocks_Frequencies_Value_Get)
    RCC_Flag_Status_Get                      0x080041e5   Thumb Code    58  n32g430_rcc.o(i.RCC_Flag_Status_Get)
    RCC_HSI_Enable                           0x08004225   Thumb Code     8  n32g430_rcc.o(i.RCC_HSI_Enable)
    RCC_HSI_Stable_Wait                      0x08004231   Thumb Code    78  n32g430_rcc.o(i.RCC_HSI_Stable_Wait)
    RCC_Hclk_Config                          0x08004285   Thumb Code    18  n32g430_rcc.o(i.RCC_Hclk_Config)
    RCC_PLL_Config                           0x0800429d   Thumb Code    46  n32g430_rcc.o(i.RCC_PLL_Config)
    RCC_PLL_Enable                           0x080042d5   Thumb Code     8  n32g430_rcc.o(i.RCC_PLL_Enable)
    RCC_Pclk1_Config                         0x080042e1   Thumb Code    18  n32g430_rcc.o(i.RCC_Pclk1_Config)
    RCC_Pclk2_Config                         0x080042f9   Thumb Code    20  n32g430_rcc.o(i.RCC_Pclk2_Config)
    RCC_Reset                                0x08004311   Thumb Code    74  n32g430_rcc.o(i.RCC_Reset)
    RCC_Sysclk_Config                        0x08004371   Thumb Code    18  n32g430_rcc.o(i.RCC_Sysclk_Config)
    RCC_Sysclk_Source_Get                    0x08004389   Thumb Code    10  n32g430_rcc.o(i.RCC_Sysclk_Source_Get)
    Read_I2C_Byte                            0x08004399   Thumb Code    90  i2c.o(i.Read_I2C_Byte)
    Read_IIC                                 0x080043f9   Thumb Code    56  i2c.o(i.Read_IIC)
    SPI_BaudRatePres_Config                  0x08004431   Thumb Code    16  n32g430_spi.o(i.SPI_BaudRatePres_Config)
    SPI_CLKPHA_Config                        0x08004441   Thumb Code    16  n32g430_spi.o(i.SPI_CLKPHA_Config)
    SPI_CLKPOL_Config                        0x08004451   Thumb Code    16  n32g430_spi.o(i.SPI_CLKPOL_Config)
    SPI_CRC_Polynomial_Set                   0x08004461   Thumb Code     4  n32g430_spi.o(i.SPI_CRC_Polynomial_Set)
    SPI_DataDirection_Config                 0x08004465   Thumb Code    16  n32g430_spi.o(i.SPI_DataDirection_Config)
    SPI_DataLen_Config                       0x08004475   Thumb Code    16  n32g430_spi.o(i.SPI_DataLen_Config)
    SPI_FirstBit_Config                      0x08004485   Thumb Code    16  n32g430_spi.o(i.SPI_FirstBit_Config)
    SPI_GPIO_Init                            0x08004495   Thumb Code    38  spi.o(i.SPI_GPIO_Init)
    SPI_I2S_Data_Transmit                    0x080044c1   Thumb Code     4  n32g430_spi.o(i.SPI_I2S_Data_Transmit)
    SPI_I2S_Flag_Status_Get                  0x080044c5   Thumb Code    18  n32g430_spi.o(i.SPI_I2S_Flag_Status_Get)
    SPI_I2S_Reset                            0x080044d9   Thumb Code    34  n32g430_spi.o(i.SPI_I2S_Reset)
    SPI_Initializes                          0x08004505   Thumb Code    80  n32g430_spi.o(i.SPI_Initializes)
    SPI_Initializes_Structure                0x08004555   Thumb Code    24  n32g430_spi.o(i.SPI_Initializes_Structure)
    SPI_NSS_Config                           0x0800456d   Thumb Code    16  n32g430_spi.o(i.SPI_NSS_Config)
    SPI_ON                                   0x0800457d   Thumb Code    10  n32g430_spi.o(i.SPI_ON)
    SPI_Send_Data16                          0x08004587   Thumb Code    18  spi.o(i.SPI_Send_Data16)
    SPI_Send_Data8                           0x08004599   Thumb Code    58  spi.o(i.SPI_Send_Data8)
    SPI_Set_Nss_Level                        0x080045dd   Thumb Code    26  n32g430_spi.o(i.SPI_Set_Nss_Level)
    SPI_SpiMode_Config                       0x080045f7   Thumb Code    16  n32g430_spi.o(i.SPI_SpiMode_Config)
    SPI_TFT_Init                             0x08004609   Thumb Code    82  spi.o(i.SPI_TFT_Init)
    SVC_Handler                              0x08004665   Thumb Code     2  n32g430_it.o(i.SVC_Handler)
    Set_PD_Protocol                          0x08004669   Thumb Code    12  ui_adjust.o(i.Set_PD_Protocol)
    Set_QC_Protocol                          0x08004679   Thumb Code    12  ui_adjust.o(i.Set_QC_Protocol)
    Set_SysClock_To_PLL128MHz                0x08004689   Thumb Code    96  sysclk.o(i.Set_SysClock_To_PLL128MHz)
    ShowAdjMainMenu                          0x080046f1   Thumb Code   144  ui_adjust.o(i.ShowAdjMainMenu)
    ShowMainMenu                             0x08004781   Thumb Code    98  ui.o(i.ShowMainMenu)
    ShowPdMainMenu                           0x080047fd   Thumb Code  1914  ui_adjust.o(i.ShowPdMainMenu)
    ShowQCMainMenu                           0x08004f95   Thumb Code   478  ui_adjust.o(i.ShowQCMainMenu)
    Start_ADC_Convert_Once                   0x080051ad   Thumb Code    42  adc.o(i.Start_ADC_Convert_Once)
    SysTick_Delay_Ms                         0x080051d7   Thumb Code    74  bsp_delay.o(i.SysTick_Delay_Ms)
    SysTick_Delay_Us                         0x08005221   Thumb Code    72  bsp_delay.o(i.SysTick_Delay_Us)
    SysTick_Handler                          0x0800526d   Thumb Code     2  n32g430_it.o(i.SysTick_Handler)
    System_Initializes                       0x08005389   Thumb Code   144  system_n32g430.o(i.System_Initializes)
    TIM6_IRQHandler                          0x08005435   Thumb Code    72  main.o(i.TIM6_IRQHandler)
    TIM_Base_Auto_Reload_Set                 0x08005485   Thumb Code     4  n32g430_tim.o(i.TIM_Base_Auto_Reload_Set)
    TIM_Base_Channel1                        0x08005489   Thumb Code    22  n32g430_tim.o(i.TIM_Base_Channel1)
    TIM_Base_Channel2                        0x0800549f   Thumb Code    22  n32g430_tim.o(i.TIM_Base_Channel2)
    TIM_Base_Channel3                        0x080054b5   Thumb Code    22  n32g430_tim.o(i.TIM_Base_Channel3)
    TIM_Base_Channel4                        0x080054cb   Thumb Code    22  n32g430_tim.o(i.TIM_Base_Channel4)
    TIM_Base_Count_Mode_Set                  0x080054e1   Thumb Code    16  n32g430_tim.o(i.TIM_Base_Count_Mode_Set)
    TIM_Base_Initialize                      0x080054f1   Thumb Code   156  n32g430_tim.o(i.TIM_Base_Initialize)
    TIM_Base_OCrefClear                      0x080055a1   Thumb Code    22  n32g430_tim.o(i.TIM_Base_OCrefClear)
    TIM_Base_Prescaler_Set                   0x080055b7   Thumb Code     4  n32g430_tim.o(i.TIM_Base_Prescaler_Set)
    TIM_Base_Reload_Mode_Set                 0x080055bb   Thumb Code     4  n32g430_tim.o(i.TIM_Base_Reload_Mode_Set)
    TIM_Base_Repeat_Count_Set                0x080055bf   Thumb Code     4  n32g430_tim.o(i.TIM_Base_Repeat_Count_Set)
    TIM_Base_Struct_Initialize               0x080055c3   Thumb Code    30  n32g430_tim.o(i.TIM_Base_Struct_Initialize)
    TIM_Clock_Division_Set                   0x080055e1   Thumb Code    16  n32g430_tim.o(i.TIM_Clock_Division_Set)
    TIM_Interrupt_Enable                     0x080055f1   Thumb Code     8  n32g430_tim.o(i.TIM_Interrupt_Enable)
    TIM_Interrupt_Status_Clear               0x080055f9   Thumb Code     6  n32g430_tim.o(i.TIM_Interrupt_Status_Clear)
    TIM_Interrupt_Status_Get                 0x080055ff   Thumb Code    32  n32g430_tim.o(i.TIM_Interrupt_Status_Get)
    TIM_On                                   0x0800561f   Thumb Code    10  n32g430_tim.o(i.TIM_On)
    TempCal                                  0x08005629   Thumb Code    92  adc.o(i.TempCal)
    Tim6_Init                                0x08005695   Thumb Code   100  main.o(i.Tim6_Init)
    UI_Adjust_Exit                           0x080056fd   Thumb Code    22  ui_adjust.o(i.UI_Adjust_Exit)
    UI_Adjust_Load                           0x08005715   Thumb Code    28  ui_adjust.o(i.UI_Adjust_Load)
    UI_Adjust_Task                           0x08005739   Thumb Code     2  ui_adjust.o(i.UI_Adjust_Task)
    UI_Main_Load                             0x0800573d   Thumb Code    44  ui.o(i.UI_Main_Load)
    UI_Main_Task                             0x08005779   Thumb Code     2  ui.o(i.UI_Main_Task)
    UI_Measure_Exit                          0x0800577d   Thumb Code    22  ui_measure.o(i.UI_Measure_Exit)
    UI_Measure_Load                          0x08005799   Thumb Code    30  ui_measure.o(i.UI_Measure_Load)
    UI_Measure_Task                          0x080057c1   Thumb Code   476  ui_measure.o(i.UI_Measure_Task)
    UsageFault_Handler                       0x08005a15   Thumb Code     4  n32g430_it.o(i.UsageFault_Handler)
    Write_I2C_Byte                           0x08005a19   Thumb Code   104  i2c.o(i.Write_I2C_Byte)
    Write_IIC                                0x08005a85   Thumb Code    46  i2c.o(i.Write_IIC)
    __ARM_fpclassify                         0x08005ab3   Thumb Code    48  fpclassify.o(i.__ARM_fpclassify)
    _is_digit                                0x08005ae3   Thumb Code    14  __printf_wp.o(i._is_digit)
    delay                                    0x08005af1   Thumb Code    12  i2c.o(i.delay)
    main                                     0x08005afd   Thumb Code    76  main.o(i.main)
    mcuRestart                               0x08005b65   Thumb Code    68  decoy.o(i.mcuRestart)
    _get_lc_numeric                          0x08005bb1   Thumb Code    44  lc_numeric_c.o(locale$$code)
    __aeabi_d2f                              0x08005bdd   Thumb Code     0  d2f.o(x$fpl$d2f)
    _d2f                                     0x08005bdd   Thumb Code    98  d2f.o(x$fpl$d2f)
    __aeabi_ddiv                             0x08005c41   Thumb Code     0  ddiv.o(x$fpl$ddiv)
    _ddiv                                    0x08005c41   Thumb Code   552  ddiv.o(x$fpl$ddiv)
    __aeabi_ui2d                             0x08005ef1   Thumb Code     0  dflt_clz.o(x$fpl$dfltu)
    _dfltu                                   0x08005ef1   Thumb Code    38  dflt_clz.o(x$fpl$dfltu)
    __aeabi_dmul                             0x08005f19   Thumb Code     0  dmul.o(x$fpl$dmul)
    _dmul                                    0x08005f19   Thumb Code   332  dmul.o(x$fpl$dmul)
    __fpl_dnaninf                            0x0800606d   Thumb Code   156  dnaninf.o(x$fpl$dnaninf)
    __fpl_dretinf                            0x08006109   Thumb Code    12  dretinf.o(x$fpl$dretinf)
    __aeabi_f2d                              0x08006115   Thumb Code     0  f2d.o(x$fpl$f2d)
    _f2d                                     0x08006115   Thumb Code    86  f2d.o(x$fpl$f2d)
    __fpl_fnaninf                            0x0800616b   Thumb Code   140  fnaninf.o(x$fpl$fnaninf)
    _fp_init                                 0x080061f7   Thumb Code    10  fpinit.o(x$fpl$fpinit)
    __fplib_config_fpu_vfp                   0x080061ff   Thumb Code     0  fpinit.o(x$fpl$fpinit)
    __fplib_config_pureend_doubles           0x080061ff   Thumb Code     0  fpinit.o(x$fpl$fpinit)
    __fpl_fretinf                            0x08006201   Thumb Code    10  fretinf.o(x$fpl$fretinf)
    _printf_fp_dec                           0x0800620b   Thumb Code     4  printf1.o(x$fpl$printf1)
    __I$use$fp                               0x0800620e   Number         0  usenofp.o(x$fpl$usenofp)
    ascii_1206                               0x0800624e   Data        1140  lcd.o(.constdata)
    ascii_1608                               0x080066c2   Data        1520  lcd.o(.constdata)
    ascii_2412                               0x08006cb2   Data        4560  lcd.o(.constdata)
    ascii_3216                               0x08007e82   Data        6080  lcd.o(.constdata)
    gImage_measu                             0x08009642   Data        3200  ui.o(.constdata)
    gImage_Adj                               0x0800a2c2   Data        3200  ui.o(.constdata)
    QC_Value                                 0x0800af42   Data           8  ui_adjust.o(.constdata)
    Region$$Table$$Base                      0x0800b058   Number         0  anon$$obj.o(Region$$Table)
    Region$$Table$$Limit                     0x0800b078   Number         0  anon$$obj.o(Region$$Table)
    SystemClockFrequency                     0x20000000   Data           4  system_n32g430.o(.data)
    IsReset                                  0x20000008   Data           1  main.o(.data)
    Key_Ok_Func                              0x2000001c   Data           1  ui.o(.data)
    Screen_Roll                              0x2000001d   Data           1  ui.o(.data)
    sg_MainMenuTable                         0x20000020   Data          48  ui.o(.data)
    ConnectFlag                              0x20000051   Data           1  ui_measure.o(.data)
    MeasureFlag                              0x20000052   Data           1  ui_measure.o(.data)
    sg_AdjMenuTable                          0x20000054   Data          48  ui_adjust.o(.data)
    pps_sel                                  0x20000084   Data           1  ui_adjust.o(.data)
    temp_mode                                0x20000085   Data           1  ui_adjust.o(.data)
    sg_PDMenuTable                           0x20000088   Data         216  ui_adjust.o(.data)
    sg_QCMenuTable                           0x20000160   Data         144  ui_adjust.o(.data)
    ADC_Converted_Value                      0x200001f4   Data          10  adc.o(.bss)
    ADC_Calculation_Value                    0x20000200   Data          20  adc.o(.bss)
    SPI_InitStructure                        0x20000214   Data          18  spi.o(.bss)
    FS2711_Lib                               0x20000228   Data          96  fs2711.o(.bss)
    sg_FlashSelect                           0x20000288   Data          14  flash.o(.bss)
    PdMenuVolt                               0x20000408   Data         112  ui_adjust.o(.bss)
    __libspace_start                         0x20000478   Data          96  libspace.o(.bss)
    __temporary_stack_top$libspace           0x200004d8   Data           0  libspace.o(.bss)



==============================================================================

Memory Map of the image

  Image Entry point : 0x08000115

  Load Region LR_IROM1 (Base: 0x08000000, Size: 0x0000b288, Max: 0x00010000, ABSOLUTE, COMPRESSED[0x0000b14c])

    Execution Region ER_IROM1 (Base: 0x08000000, Size: 0x0000b094, Max: 0x00010000, ABSOLUTE)

    Base Addr    Size         Type   Attr      Idx    E Section Name        Object

    0x08000000   0x00000114   Data   RO            3    RESET               startup_n32g430.o
    0x08000114   0x00000008   Code   RO         7003  * !!!main             c_w.l(__main.o)
    0x0800011c   0x00000034   Code   RO         7239    !!!scatter          c_w.l(__scatter.o)
    0x08000150   0x0000005a   Code   RO         7237    !!dczerorl2         c_w.l(__dczerorl2.o)
    0x080001aa   0x00000002   PAD
    0x080001ac   0x0000001c   Code   RO         7241    !!handler_zi        c_w.l(__scatter_zi.o)
    0x080001c8   0x00000000   Code   RO         6992    .ARM.Collect$$_printf_percent$$00000000  c_w.l(_printf_percent.o)
    0x080001c8   0x00000006   Code   RO         6991    .ARM.Collect$$_printf_percent$$00000003  c_w.l(_printf_f.o)
    0x080001ce   0x00000004   Code   RO         7030    .ARM.Collect$$_printf_percent$$00000017  c_w.l(_printf_percent_end.o)
    0x080001d2   0x00000002   Code   RO         7110    .ARM.Collect$$libinit$$00000000  c_w.l(libinit.o)
    0x080001d4   0x00000004   Code   RO         7111    .ARM.Collect$$libinit$$00000001  c_w.l(libinit2.o)
    0x080001d8   0x00000000   Code   RO         7114    .ARM.Collect$$libinit$$00000004  c_w.l(libinit2.o)
    0x080001d8   0x00000000   Code   RO         7117    .ARM.Collect$$libinit$$0000000A  c_w.l(libinit2.o)
    0x080001d8   0x00000000   Code   RO         7119    .ARM.Collect$$libinit$$0000000C  c_w.l(libinit2.o)
    0x080001d8   0x00000000   Code   RO         7121    .ARM.Collect$$libinit$$0000000E  c_w.l(libinit2.o)
    0x080001d8   0x00000006   Code   RO         7122    .ARM.Collect$$libinit$$0000000F  c_w.l(libinit2.o)
    0x080001de   0x00000000   Code   RO         7124    .ARM.Collect$$libinit$$00000011  c_w.l(libinit2.o)
    0x080001de   0x00000000   Code   RO         7126    .ARM.Collect$$libinit$$00000013  c_w.l(libinit2.o)
    0x080001de   0x00000000   Code   RO         7128    .ARM.Collect$$libinit$$00000015  c_w.l(libinit2.o)
    0x080001de   0x0000000a   Code   RO         7129    .ARM.Collect$$libinit$$00000016  c_w.l(libinit2.o)
    0x080001e8   0x00000000   Code   RO         7130    .ARM.Collect$$libinit$$00000017  c_w.l(libinit2.o)
    0x080001e8   0x00000000   Code   RO         7132    .ARM.Collect$$libinit$$00000019  c_w.l(libinit2.o)
    0x080001e8   0x00000000   Code   RO         7134    .ARM.Collect$$libinit$$0000001B  c_w.l(libinit2.o)
    0x080001e8   0x00000000   Code   RO         7136    .ARM.Collect$$libinit$$0000001D  c_w.l(libinit2.o)
    0x080001e8   0x00000000   Code   RO         7138    .ARM.Collect$$libinit$$0000001F  c_w.l(libinit2.o)
    0x080001e8   0x00000000   Code   RO         7140    .ARM.Collect$$libinit$$00000021  c_w.l(libinit2.o)
    0x080001e8   0x00000000   Code   RO         7142    .ARM.Collect$$libinit$$00000023  c_w.l(libinit2.o)
    0x080001e8   0x00000000   Code   RO         7144    .ARM.Collect$$libinit$$00000025  c_w.l(libinit2.o)
    0x080001e8   0x00000000   Code   RO         7148    .ARM.Collect$$libinit$$0000002C  c_w.l(libinit2.o)
    0x080001e8   0x00000000   Code   RO         7150    .ARM.Collect$$libinit$$0000002E  c_w.l(libinit2.o)
    0x080001e8   0x00000000   Code   RO         7152    .ARM.Collect$$libinit$$00000030  c_w.l(libinit2.o)
    0x080001e8   0x00000000   Code   RO         7154    .ARM.Collect$$libinit$$00000032  c_w.l(libinit2.o)
    0x080001e8   0x00000002   Code   RO         7155    .ARM.Collect$$libinit$$00000033  c_w.l(libinit2.o)
    0x080001ea   0x00000002   Code   RO         7185    .ARM.Collect$$libshutdown$$00000000  c_w.l(libshutdown.o)
    0x080001ec   0x00000000   Code   RO         7196    .ARM.Collect$$libshutdown$$00000002  c_w.l(libshutdown2.o)
    0x080001ec   0x00000000   Code   RO         7198    .ARM.Collect$$libshutdown$$00000004  c_w.l(libshutdown2.o)
    0x080001ec   0x00000000   Code   RO         7201    .ARM.Collect$$libshutdown$$00000007  c_w.l(libshutdown2.o)
    0x080001ec   0x00000000   Code   RO         7204    .ARM.Collect$$libshutdown$$0000000A  c_w.l(libshutdown2.o)
    0x080001ec   0x00000000   Code   RO         7206    .ARM.Collect$$libshutdown$$0000000C  c_w.l(libshutdown2.o)
    0x080001ec   0x00000000   Code   RO         7209    .ARM.Collect$$libshutdown$$0000000F  c_w.l(libshutdown2.o)
    0x080001ec   0x00000002   Code   RO         7210    .ARM.Collect$$libshutdown$$00000010  c_w.l(libshutdown2.o)
    0x080001ee   0x00000000   Code   RO         7023    .ARM.Collect$$rtentry$$00000000  c_w.l(__rtentry.o)
    0x080001ee   0x00000000   Code   RO         7041    .ARM.Collect$$rtentry$$00000002  c_w.l(__rtentry2.o)
    0x080001ee   0x00000006   Code   RO         7053    .ARM.Collect$$rtentry$$00000004  c_w.l(__rtentry4.o)
    0x080001f4   0x00000000   Code   RO         7043    .ARM.Collect$$rtentry$$00000009  c_w.l(__rtentry2.o)
    0x080001f4   0x00000004   Code   RO         7044    .ARM.Collect$$rtentry$$0000000A  c_w.l(__rtentry2.o)
    0x080001f8   0x00000000   Code   RO         7046    .ARM.Collect$$rtentry$$0000000C  c_w.l(__rtentry2.o)
    0x080001f8   0x00000008   Code   RO         7047    .ARM.Collect$$rtentry$$0000000D  c_w.l(__rtentry2.o)
    0x08000200   0x00000002   Code   RO         7156    .ARM.Collect$$rtexit$$00000000  c_w.l(rtexit.o)
    0x08000202   0x00000000   Code   RO         7163    .ARM.Collect$$rtexit$$00000002  c_w.l(rtexit2.o)
    0x08000202   0x00000004   Code   RO         7164    .ARM.Collect$$rtexit$$00000003  c_w.l(rtexit2.o)
    0x08000206   0x00000006   Code   RO         7165    .ARM.Collect$$rtexit$$00000004  c_w.l(rtexit2.o)
    0x0800020c   0x00000040   Code   RO            4    .text               startup_n32g430.o
    0x0800024c   0x00000028   Code   RO         6967    .text               c_w.l(noretval__2sprintf.o)
    0x08000274   0x0000010e   Code   RO         6979    .text               c_w.l(__printf_wp.o)
    0x08000382   0x0000003e   Code   RO         6993    .text               c_w.l(strlen.o)
    0x080003c0   0x00000044   Code   RO         6995    .text               c_w.l(rt_memclr.o)
    0x08000404   0x0000004e   Code   RO         6997    .text               c_w.l(rt_memclr_w.o)
    0x08000452   0x00000002   PAD
    0x08000454   0x00000080   Code   RO         6999    .text               c_w.l(strcmpv7m.o)
    0x080004d4   0x00000006   Code   RO         7001    .text               c_w.l(heapauxi.o)
    0x080004da   0x0000041a   Code   RO         7024    .text               c_w.l(_printf_fp_dec.o)
    0x080008f4   0x00000030   Code   RO         7026    .text               c_w.l(_printf_char_common.o)
    0x08000924   0x0000000a   Code   RO         7028    .text               c_w.l(_sputc.o)
    0x0800092e   0x00000002   PAD
    0x08000930   0x00000008   Code   RO         7058    .text               c_w.l(rt_locale_intlibspace.o)
    0x08000938   0x0000008a   Code   RO         7060    .text               c_w.l(lludiv10.o)
    0x080009c2   0x00000002   PAD
    0x080009c4   0x00000080   Code   RO         7062    .text               c_w.l(_printf_fp_infnan.o)
    0x08000a44   0x000000dc   Code   RO         7066    .text               c_w.l(bigflt0.o)
    0x08000b20   0x00000008   Code   RO         7098    .text               c_w.l(libspace.o)
    0x08000b28   0x0000004a   Code   RO         7101    .text               c_w.l(sys_stackheap_outer.o)
    0x08000b72   0x00000012   Code   RO         7103    .text               c_w.l(exit.o)
    0x08000b84   0x0000000c   Code   RO         7175    .text               c_w.l(sys_exit.o)
    0x08000b90   0x00000002   Code   RO         7186    .text               c_w.l(use_no_semi.o)
    0x08000b92   0x00000000   Code   RO         7188    .text               c_w.l(indicate_semi.o)
    0x08000b92   0x0000003e   Code   RO         7069    CL$$btod_d2e        c_w.l(btod.o)
    0x08000bd0   0x00000046   Code   RO         7071    CL$$btod_d2e_denorm_low  c_w.l(btod.o)
    0x08000c16   0x00000060   Code   RO         7070    CL$$btod_d2e_norm_op1  c_w.l(btod.o)
    0x08000c76   0x00000338   Code   RO         7079    CL$$btod_div_common  c_w.l(btod.o)
    0x08000fae   0x000000c6   Code   RO         7076    CL$$btod_e2e        c_w.l(btod.o)
    0x08001074   0x00000028   Code   RO         7073    CL$$btod_ediv       c_w.l(btod.o)
    0x0800109c   0x00000028   Code   RO         7072    CL$$btod_emul       c_w.l(btod.o)
    0x080010c4   0x00000244   Code   RO         7078    CL$$btod_mult_common  c_w.l(btod.o)
    0x08001308   0x00000014   Code   RO          202    i.ADC_AHB_Clock_Mode_Config  n32g430_adc.o
    0x0800131c   0x00000024   Code   RO         5963    i.ADC_CLK_Init      adc.o
    0x08001340   0x00000048   Code   RO          212    i.ADC_Calibration_Operation  n32g430_adc.o
    0x08001388   0x0000008c   Code   RO          213    i.ADC_Channel_Sample_Time_Config  n32g430_adc.o
    0x08001414   0x00000028   Code   RO          214    i.ADC_Clock_Mode_Config  n32g430_adc.o
    0x0800143c   0x000000b0   Code   RO         5964    i.ADC_Configuration  adc.o
    0x080014ec   0x00000014   Code   RO          215    i.ADC_Continue_Conversion_Disable  n32g430_adc.o
    0x08001500   0x00000014   Code   RO          216    i.ADC_Continue_Conversion_Enable  n32g430_adc.o
    0x08001514   0x00000014   Code   RO          218    i.ADC_DMA_Transfer_Enable  n32g430_adc.o
    0x08001528   0x0000001c   Code   RO          219    i.ADC_Data_Alignment_Config  n32g430_adc.o
    0x08001544   0x00000010   Code   RO          229    i.ADC_Flag_Status_Clear  n32g430_adc.o
    0x08001554   0x0000002c   Code   RO          230    i.ADC_Flag_Status_Get  n32g430_adc.o
    0x08001580   0x00000034   Code   RO          233    i.ADC_Initializes   n32g430_adc.o
    0x080015b4   0x00000014   Code   RO          247    i.ADC_Multichannels_Disable  n32g430_adc.o
    0x080015c8   0x00000014   Code   RO          248    i.ADC_Multichannels_Enable  n32g430_adc.o
    0x080015dc   0x00000014   Code   RO          250    i.ADC_ON            n32g430_adc.o
    0x080015f0   0x00000014   Code   RO          251    i.ADC_PLL_Clock_Mode_Config  n32g430_adc.o
    0x08001604   0x0000001c   Code   RO          252    i.ADC_Regular_Channels_Number_Config  n32g430_adc.o
    0x08001620   0x00000048   Code   RO          253    i.ADC_Regular_Channels_Software_Conversion_Operation  n32g430_adc.o
    0x08001668   0x0000001c   Code   RO          255    i.ADC_Regular_Group_External_Trigger_Source_Config  n32g430_adc.o
    0x08001684   0x00000098   Code   RO          256    i.ADC_Regular_Sequence_Conversion_Number_Config  n32g430_adc.o
    0x0800171c   0x00000028   Code   RO          260    i.ADC_Temperature_Sensor_And_Vrefint_Channel_Enable  n32g430_adc.o
    0x08001744   0x00000004   Code   RO         5729    i.BusFault_Handler  n32g430_it.o
    0x08001748   0x00000060   Code   RO           13    i.DBG_SysTick_Config  bsp_delay.o
    0x080017a8   0x00000004   Code   RO         1458    i.DMA_Buffer_Size_Config  n32g430_dma.o
    0x080017ac   0x0000000a   Code   RO         1460    i.DMA_Channel_Enable  n32g430_dma.o
    0x080017b6   0x00000004   Code   RO         1461    i.DMA_Channel_Request_Remap  n32g430_dma.o
    0x080017ba   0x00000010   Code   RO         1462    i.DMA_Circular_Mode_Config  n32g430_dma.o
    0x080017ca   0x00000002   PAD
    0x080017cc   0x00000068   Code   RO         5965    i.DMA_Configuration  adc.o
    0x08001834   0x00000010   Code   RO         1465    i.DMA_Destination_Config  n32g430_dma.o
    0x08001844   0x00000060   Code   RO         1468    i.DMA_Initializes   n32g430_dma.o
    0x080018a4   0x00000010   Code   RO         1473    i.DMA_Memory_2_Memory_Config  n32g430_dma.o
    0x080018b4   0x00000010   Code   RO         1474    i.DMA_Memory_Addr_Increment_Config  n32g430_dma.o
    0x080018c4   0x00000004   Code   RO         1475    i.DMA_Memory_Address_Config  n32g430_dma.o
    0x080018c8   0x00000010   Code   RO         1476    i.DMA_Memory_Data_Width_Config  n32g430_dma.o
    0x080018d8   0x00000010   Code   RO         1477    i.DMA_Peripheral_Addr_Increment_Config  n32g430_dma.o
    0x080018e8   0x00000004   Code   RO         1478    i.DMA_Peripheral_Address_Config  n32g430_dma.o
    0x080018ec   0x00000010   Code   RO         1479    i.DMA_Peripheral_Data_Width_Config  n32g430_dma.o
    0x080018fc   0x00000010   Code   RO         1480    i.DMA_Priority_Config  n32g430_dma.o
    0x0800190c   0x0000001a   Code   RO         1482    i.DMA_Structure_Initializes  n32g430_dma.o
    0x08001926   0x00000002   Code   RO         5730    i.DebugMon_Handler  n32g430_it.o
    0x08001928   0x00000018   Code   RO         6509    i.DeleteMenu        menu.o
    0x08001940   0x000000e4   Code   RO         6908    i.EnableNewProtocol  decoy.o
    0x08001a24   0x00000010   Code   RO         1720    i.FLASH_Flag_Status_Clear  n32g430_flash.o
    0x08001a34   0x00000026   Code   RO         1728    i.FLASH_Last_Operation_Wait  n32g430_flash.o
    0x08001a5a   0x00000002   PAD
    0x08001a5c   0x00000018   Code   RO         1730    i.FLASH_Latency_Set  n32g430_flash.o
    0x08001a74   0x00000014   Code   RO         1731    i.FLASH_Lock        n32g430_flash.o
    0x08001a88   0x00000050   Code   RO         1733    i.FLASH_One_Page_Erase  n32g430_flash.o
    0x08001ad8   0x00000014   Code   RO         6327    i.FLASH_SIM_EraseEE  flash.o
    0x08001aec   0x00000034   Code   RO         1752    i.FLASH_Status_Get  n32g430_flash.o
    0x08001b20   0x00000018   Code   RO         1753    i.FLASH_Unlock      n32g430_flash.o
    0x08001b38   0x00000050   Code   RO         1754    i.FLASH_Word_Program  n32g430_flash.o
    0x08001b88   0x00000004   Code   RO         6079    i.FS2711_Debug      fs2711.o
    0x08001b8c   0x0000001a   Code   RO         6081    i.FS2711_Enable_Protocol  fs2711.o
    0x08001ba6   0x0000000c   Code   RO         6082    i.FS2711_Enable_Voltage_Current  fs2711.o
    0x08001bb2   0x00000002   PAD
    0x08001bb4   0x00000040   Code   RO         6234    i.FS2711_GPIO_Init  i2c.o
    0x08001bf4   0x00000028   Code   RO         6084    i.FS2711_Get_PPS_Num  fs2711.o
    0x08001c1c   0x0000022c   Code   RO         6085    i.FS2711_Get_State  fs2711.o
    0x08001e48   0x00000014   Code   RO         6087    i.FS2711_Port_Disconnect  fs2711.o
    0x08001e5c   0x0000002a   Code   RO         6088    i.FS2711_Port_Reset  fs2711.o
    0x08001e86   0x00000012   Code   RO         6089    i.FS2711_Read       fs2711.o
    0x08001e98   0x00000040   Code   RO         6090    i.FS2711_SCP_Calc   fs2711.o
    0x08001ed8   0x00000048   Code   RO         6092    i.FS2711_Select_Protocol  fs2711.o
    0x08001f20   0x000003a4   Code   RO         6093    i.FS2711_Select_Voltage_Current  fs2711.o
    0x080022c4   0x0000000c   Code   RO         6095    i.FS2711_System_Reset  fs2711.o
    0x080022d0   0x00000010   Code   RO         6097    i.FS2711_Write      fs2711.o
    0x080022e0   0x00000060   Code   RO         6328    i.Flash_Read        flash.o
    0x08002340   0x00000078   Code   RO         6329    i.Flash_Write       flash.o
    0x080023b8   0x00000040   Code   RO         2008    i.GPIO_Alternate_Set  n32g430_gpio.o
    0x080023f8   0x00000024   Code   RO         5966    i.GPIO_Configuration  adc.o
    0x0800241c   0x0000001c   Code   RO         2009    i.GPIO_Driver_Set   n32g430_gpio.o
    0x08002438   0x00000010   Code   RO         2012    i.GPIO_Input_Pin_Data_Get  n32g430_gpio.o
    0x08002448   0x00000044   Code   RO         2013    i.GPIO_Mode_Set     n32g430_gpio.o
    0x0800248c   0x00000056   Code   RO         2018    i.GPIO_Peripheral_Initialize  n32g430_gpio.o
    0x080024e2   0x00000004   Code   RO         2022    i.GPIO_Pins_Reset   n32g430_gpio.o
    0x080024e6   0x00000004   Code   RO         2023    i.GPIO_Pins_Set     n32g430_gpio.o
    0x080024ea   0x0000001c   Code   RO         2024    i.GPIO_Pull_Set     n32g430_gpio.o
    0x08002506   0x00000018   Code   RO         2026    i.GPIO_SlewRate_Set  n32g430_gpio.o
    0x0800251e   0x00000018   Code   RO         2027    i.GPIO_Structure_Initialize  n32g430_gpio.o
    0x08002536   0x00000002   PAD
    0x08002538   0x000001b4   Code   RO         5967    i.Get_Average_ADC_Converted_Value  adc.o
    0x080026ec   0x00000004   Code   RO         5731    i.HardFault_Handler  n32g430_it.o
    0x080026f0   0x00000058   Code   RO         6235    i.I2C_ReStart       i2c.o
    0x08002748   0x00000048   Code   RO         6236    i.I2C_Start         i2c.o
    0x08002790   0x00000038   Code   RO         6237    i.I2C_Stop          i2c.o
    0x080027c8   0x00000028   Code   RO         6238    i.I2C_Wait_Ack      i2c.o
    0x080027f0   0x00000048   Code   RO         6442    i.InitKeyIo         keyio.o
    0x08002838   0x0000003c   Code   RO         6909    i.Init_FS2711       decoy.o
    0x08002874   0x00000020   Code   RO         6443    i.IoKey_Init        keyio.o
    0x08002894   0x00000014   Code   RO         6444    i.IoKey_Read        keyio.o
    0x080028a8   0x00000050   Code   RO         6445    i.IoKey_Scan        keyio.o
    0x080028f8   0x0000007c   Code   RO         6368    i.KEY_GetClickCnt   key.o
    0x08002974   0x00000018   Code   RO         6370    i.KEY_GetPressTime  key.o
    0x0800298c   0x00000060   Code   RO         6371    i.KEY_Init          key.o
    0x080029ec   0x00000014   Code   RO         6372    i.KEY_Register      key.o
    0x08002a00   0x000001cc   Code   RO         6373    i.KEY_Scan          key.o
    0x08002bcc   0x00000014   Code   RO         6374    i.KEY_SetNotifyTime  key.o
    0x08002be0   0x00000010   Code   RO         6762    i.Key_Register_PD   ui_adjust.o
    0x08002bf0   0x00000010   Code   RO         6763    i.Key_Register_QC   ui_adjust.o
    0x08002c00   0x00000028   Code   RO         6645    i.Key_Start_Task    ui.o
    0x08002c28   0x00000046   Code   RO         5900    i.LCD_Address_Set   lcd_init.o
    0x08002c6e   0x0000001c   Code   RO         5800    i.LCD_DrawPoint     lcd.o
    0x08002c8a   0x0000004a   Code   RO         5802    i.LCD_Fill          lcd.o
    0x08002cd4   0x0000003c   Code   RO         5901    i.LCD_GPIO_Init     lcd_init.o
    0x08002d10   0x0000025c   Code   RO         5902    i.LCD_Init          lcd_init.o
    0x08002f6c   0x00000030   Code   RO         5803    i.LCD_Roll          lcd.o
    0x08002f9c   0x00000158   Code   RO         5804    i.LCD_ShowChar      lcd.o
    0x080030f4   0x00000066   Code   RO         5807    i.LCD_ShowPicture   lcd.o
    0x0800315a   0x00000042   Code   RO         5808    i.LCD_ShowString    lcd.o
    0x0800319c   0x0000000c   Code   RO         5903    i.LCD_WR_DATA       lcd_init.o
    0x080031a8   0x0000000c   Code   RO         5904    i.LCD_WR_DATA8      lcd_init.o
    0x080031b4   0x00000024   Code   RO         5905    i.LCD_WR_REG        lcd_init.o
    0x080031d8   0x0000000c   Code   RO         5906    i.LCD_Writ_Bus      lcd_init.o
    0x080031e4   0x00000004   Code   RO         5732    i.MemManage_Handler  n32g430_it.o
    0x080031e8   0x00000038   Code   RO         6510    i.Menu_Bind         menu.o
    0x08003220   0x00000094   Code   RO         6513    i.Menu_Enter        menu.o
    0x080032b4   0x0000009c   Code   RO         6514    i.Menu_Exit         menu.o
    0x08003350   0x00000068   Code   RO         6515    i.Menu_Init         menu.o
    0x080033b8   0x00000040   Code   RO         6518    i.Menu_LimitShowListNum  menu.o
    0x080033f8   0x0000003c   Code   RO         6520    i.Menu_Reset        menu.o
    0x08003434   0x00000010   Code   RO         6521    i.Menu_ResetItemsNum  menu.o
    0x08003444   0x00000058   Code   RO         6522    i.Menu_SelectNext   menu.o
    0x0800349c   0x00000050   Code   RO         6523    i.Menu_SelectPrevious  menu.o
    0x080034ec   0x00000070   Code   RO         6524    i.Menu_SetItemBeginLocation  menu.o
    0x0800355c   0x0000000c   Code   RO         6525    i.Menu_SetShowBaseItem  menu.o
    0x08003568   0x00000060   Code   RO         6526    i.Menu_ShortcutEnter  menu.o
    0x080035c8   0x000000f0   Code   RO         6527    i.Menu_Task         menu.o
    0x080036b8   0x00000002   Code   RO         5733    i.NMI_Handler       n32g430_it.o
    0x080036ba   0x00000002   PAD
    0x080036bc   0x00000070   Code   RO          144    i.NVIC_Initializes  misc.o
    0x0800372c   0x00000028   Code   RO         6528    i.NewMenu           menu.o
    0x08003754   0x00000110   Code   RO         6646    i.OnKeyActionProess  ui.o
    0x08003864   0x00000028   Code   RO         6647    i.OnKeyActionProessDown  ui.o
    0x0800388c   0x00000028   Code   RO         6648    i.OnKeyActionProessUp  ui.o
    0x080038b4   0x000000d4   Code   RO         6764    i.OnKeyOkPDProess   ui_adjust.o
    0x08003988   0x000000d4   Code   RO         6765    i.OnKeyOkQCProess   ui_adjust.o
    0x08003a5c   0x000000dc   Code   RO         6766    i.OnPDFunction      ui_adjust.o
    0x08003b38   0x0000003c   Code   RO         6767    i.OnPDFunctionExit  ui_adjust.o
    0x08003b74   0x00000084   Code   RO         6768    i.OnPDFunctionLoad  ui_adjust.o
    0x08003bf8   0x000000dc   Code   RO         6769    i.OnQCFunction      ui_adjust.o
    0x08003cd4   0x00000034   Code   RO         6770    i.OnQCFunctionExit  ui_adjust.o
    0x08003d08   0x000000f0   Code   RO         6771    i.OnQCFunctionLoad  ui_adjust.o
    0x08003df8   0x00000110   Code   RO         6772    i.PD_Ok             ui_adjust.o
    0x08003f08   0x0000002c   Code   RO         6239    i.PinInInitSDA      i2c.o
    0x08003f34   0x0000002c   Code   RO         6240    i.PinOutInitSDA     i2c.o
    0x08003f60   0x000000ac   Code   RO         6773    i.QC_Ok             ui_adjust.o
    0x0800400c   0x0000001c   Code   RO         3111    i.RCC_ADC_1M_Clock_Config  n32g430_rcc.o
    0x08004028   0x00000018   Code   RO         3112    i.RCC_ADC_Hclk_Config  n32g430_rcc.o
    0x08004040   0x00000018   Code   RO         3114    i.RCC_ADC_Hclk_Enable  n32g430_rcc.o
    0x08004058   0x00000014   Code   RO         3115    i.RCC_ADC_PLL_Clock_Disable  n32g430_rcc.o
    0x0800406c   0x00000018   Code   RO         3116    i.RCC_ADC_PLL_Clock_Prescaler_Enable  n32g430_rcc.o
    0x08004084   0x00000010   Code   RO         3118    i.RCC_AHB_Peripheral_Clock_Enable  n32g430_rcc.o
    0x08004094   0x00000010   Code   RO         3121    i.RCC_APB1_Peripheral_Clock_Enable  n32g430_rcc.o
    0x080040a4   0x00000010   Code   RO         3124    i.RCC_APB2_Peripheral_Clock_Enable  n32g430_rcc.o
    0x080040b4   0x00000018   Code   RO         3125    i.RCC_APB2_Peripheral_Reset  n32g430_rcc.o
    0x080040cc   0x00000118   Code   RO         3129    i.RCC_Clocks_Frequencies_Value_Get  n32g430_rcc.o
    0x080041e4   0x00000040   Code   RO         3130    i.RCC_Flag_Status_Get  n32g430_rcc.o
    0x08004224   0x0000000c   Code   RO         3135    i.RCC_HSI_Enable    n32g430_rcc.o
    0x08004230   0x00000054   Code   RO         3136    i.RCC_HSI_Stable_Wait  n32g430_rcc.o
    0x08004284   0x00000018   Code   RO         3137    i.RCC_Hclk_Config   n32g430_rcc.o
    0x0800429c   0x00000038   Code   RO         3157    i.RCC_PLL_Config    n32g430_rcc.o
    0x080042d4   0x0000000c   Code   RO         3159    i.RCC_PLL_Enable    n32g430_rcc.o
    0x080042e0   0x00000018   Code   RO         3160    i.RCC_Pclk1_Config  n32g430_rcc.o
    0x080042f8   0x00000018   Code   RO         3161    i.RCC_Pclk2_Config  n32g430_rcc.o
    0x08004310   0x00000060   Code   RO         3165    i.RCC_Reset         n32g430_rcc.o
    0x08004370   0x00000018   Code   RO         3167    i.RCC_Sysclk_Config  n32g430_rcc.o
    0x08004388   0x00000010   Code   RO         3168    i.RCC_Sysclk_Source_Get  n32g430_rcc.o
    0x08004398   0x00000060   Code   RO         6241    i.Read_I2C_Byte     i2c.o
    0x080043f8   0x00000038   Code   RO         6242    i.Read_IIC          i2c.o
    0x08004430   0x00000010   Code   RO         3930    i.SPI_BaudRatePres_Config  n32g430_spi.o
    0x08004440   0x00000010   Code   RO         3931    i.SPI_CLKPHA_Config  n32g430_spi.o
    0x08004450   0x00000010   Code   RO         3932    i.SPI_CLKPOL_Config  n32g430_spi.o
    0x08004460   0x00000004   Code   RO         3937    i.SPI_CRC_Polynomial_Set  n32g430_spi.o
    0x08004464   0x00000010   Code   RO         3938    i.SPI_DataDirection_Config  n32g430_spi.o
    0x08004474   0x00000010   Code   RO         3939    i.SPI_DataLen_Config  n32g430_spi.o
    0x08004484   0x00000010   Code   RO         3940    i.SPI_FirstBit_Config  n32g430_spi.o
    0x08004494   0x0000002c   Code   RO         6029    i.SPI_GPIO_Init     spi.o
    0x080044c0   0x00000004   Code   RO         3945    i.SPI_I2S_Data_Transmit  n32g430_spi.o
    0x080044c4   0x00000012   Code   RO         3946    i.SPI_I2S_Flag_Status_Get  n32g430_spi.o
    0x080044d6   0x00000002   PAD
    0x080044d8   0x0000002c   Code   RO         3951    i.SPI_I2S_Reset     n32g430_spi.o
    0x08004504   0x00000050   Code   RO         3952    i.SPI_Initializes   n32g430_spi.o
    0x08004554   0x00000018   Code   RO         3953    i.SPI_Initializes_Structure  n32g430_spi.o
    0x0800456c   0x00000010   Code   RO         3954    i.SPI_NSS_Config    n32g430_spi.o
    0x0800457c   0x0000000a   Code   RO         3957    i.SPI_ON            n32g430_spi.o
    0x08004586   0x00000012   Code   RO         6030    i.SPI_Send_Data16   spi.o
    0x08004598   0x00000044   Code   RO         6031    i.SPI_Send_Data8    spi.o
    0x080045dc   0x0000001a   Code   RO         3960    i.SPI_Set_Nss_Level  n32g430_spi.o
    0x080045f6   0x00000010   Code   RO         3961    i.SPI_SpiMode_Config  n32g430_spi.o
    0x08004606   0x00000002   PAD
    0x08004608   0x0000005c   Code   RO         6032    i.SPI_TFT_Init      spi.o
    0x08004664   0x00000002   Code   RO         5734    i.SVC_Handler       n32g430_it.o
    0x08004666   0x00000002   PAD
    0x08004668   0x00000010   Code   RO         6774    i.Set_PD_Protocol   ui_adjust.o
    0x08004678   0x00000010   Code   RO         6775    i.Set_QC_Protocol   ui_adjust.o
    0x08004688   0x00000068   Code   RO         6485    i.Set_SysClock_To_PLL128MHz  sysclk.o
    0x080046f0   0x00000090   Code   RO         6776    i.ShowAdjMainMenu   ui_adjust.o
    0x08004780   0x0000007c   Code   RO         6649    i.ShowMainMenu      ui.o
    0x080047fc   0x00000798   Code   RO         6777    i.ShowPdMainMenu    ui_adjust.o
    0x08004f94   0x00000218   Code   RO         6778    i.ShowQCMainMenu    ui_adjust.o
    0x080051ac   0x0000002a   Code   RO         5968    i.Start_ADC_Convert_Once  adc.o
    0x080051d6   0x0000004a   Code   RO           14    i.SysTick_Delay_Ms  bsp_delay.o
    0x08005220   0x0000004c   Code   RO           15    i.SysTick_Delay_Us  bsp_delay.o
    0x0800526c   0x00000002   Code   RO         5735    i.SysTick_Handler   n32g430_it.o
    0x0800526e   0x00000002   PAD
    0x08005270   0x00000118   Code   RO         5588    i.System_Clock_Set  system_n32g430.o
    0x08005388   0x000000ac   Code   RO         5589    i.System_Initializes  system_n32g430.o
    0x08005434   0x00000050   Code   RO         5651    i.TIM6_IRQHandler   main.o
    0x08005484   0x00000004   Code   RO         4204    i.TIM_Base_Auto_Reload_Set  n32g430_tim.o
    0x08005488   0x00000016   Code   RO         4206    i.TIM_Base_Channel1  n32g430_tim.o
    0x0800549e   0x00000016   Code   RO         4207    i.TIM_Base_Channel2  n32g430_tim.o
    0x080054b4   0x00000016   Code   RO         4208    i.TIM_Base_Channel3  n32g430_tim.o
    0x080054ca   0x00000016   Code   RO         4209    i.TIM_Base_Channel4  n32g430_tim.o
    0x080054e0   0x00000010   Code   RO         4211    i.TIM_Base_Count_Mode_Set  n32g430_tim.o
    0x080054f0   0x000000b0   Code   RO         4213    i.TIM_Base_Initialize  n32g430_tim.o
    0x080055a0   0x00000016   Code   RO         4214    i.TIM_Base_OCrefClear  n32g430_tim.o
    0x080055b6   0x00000004   Code   RO         4216    i.TIM_Base_Prescaler_Set  n32g430_tim.o
    0x080055ba   0x00000004   Code   RO         4217    i.TIM_Base_Reload_Mode_Set  n32g430_tim.o
    0x080055be   0x00000004   Code   RO         4218    i.TIM_Base_Repeat_Count_Set  n32g430_tim.o
    0x080055c2   0x0000001e   Code   RO         4219    i.TIM_Base_Struct_Initialize  n32g430_tim.o
    0x080055e0   0x00000010   Code   RO         4244    i.TIM_Clock_Division_Set  n32g430_tim.o
    0x080055f0   0x00000008   Code   RO         4303    i.TIM_Interrupt_Enable  n32g430_tim.o
    0x080055f8   0x00000006   Code   RO         4304    i.TIM_Interrupt_Status_Clear  n32g430_tim.o
    0x080055fe   0x00000020   Code   RO         4305    i.TIM_Interrupt_Status_Get  n32g430_tim.o
    0x0800561e   0x0000000a   Code   RO         4318    i.TIM_On            n32g430_tim.o
    0x08005628   0x0000006c   Code   RO         5969    i.TempCal           adc.o
    0x08005694   0x00000068   Code   RO         5652    i.Tim6_Init         main.o
    0x080056fc   0x00000016   Code   RO         6779    i.UI_Adjust_Exit    ui_adjust.o
    0x08005712   0x00000002   PAD
    0x08005714   0x00000024   Code   RO         6780    i.UI_Adjust_Load    ui_adjust.o
    0x08005738   0x00000002   Code   RO         6781    i.UI_Adjust_Task    ui_adjust.o
    0x0800573a   0x00000002   PAD
    0x0800573c   0x0000003c   Code   RO         6650    i.UI_Main_Load      ui.o
    0x08005778   0x00000002   Code   RO         6651    i.UI_Main_Task      ui.o
    0x0800577a   0x00000002   PAD
    0x0800577c   0x0000001c   Code   RO         6723    i.UI_Measure_Exit   ui_measure.o
    0x08005798   0x00000028   Code   RO         6724    i.UI_Measure_Load   ui_measure.o
    0x080057c0   0x00000254   Code   RO         6725    i.UI_Measure_Task   ui_measure.o
    0x08005a14   0x00000004   Code   RO         5736    i.UsageFault_Handler  n32g430_it.o
    0x08005a18   0x0000006c   Code   RO         6243    i.Write_I2C_Byte    i2c.o
    0x08005a84   0x0000002e   Code   RO         6244    i.Write_IIC         i2c.o
    0x08005ab2   0x00000030   Code   RO         7096    i.__ARM_fpclassify  m_wm.l(fpclassify.o)
    0x08005ae2   0x0000000e   Code   RO         6981    i._is_digit         c_w.l(__printf_wp.o)
    0x08005af0   0x0000000c   Code   RO         6245    i.delay             i2c.o
    0x08005afc   0x00000068   Code   RO         5653    i.main              main.o
    0x08005b64   0x0000004c   Code   RO         6911    i.mcuRestart        decoy.o
    0x08005bb0   0x0000002c   Code   RO         7092    locale$$code        c_w.l(lc_numeric_c.o)
    0x08005bdc   0x00000062   Code   RO         7005    x$fpl$d2f           fz_wm.l(d2f.o)
    0x08005c3e   0x00000002   PAD
    0x08005c40   0x000002b0   Code   RO         7008    x$fpl$ddiv          fz_wm.l(ddiv.o)
    0x08005ef0   0x00000026   Code   RO         7011    x$fpl$dfltu         fz_wm.l(dflt_clz.o)
    0x08005f16   0x00000002   PAD
    0x08005f18   0x00000154   Code   RO         7017    x$fpl$dmul          fz_wm.l(dmul.o)
    0x0800606c   0x0000009c   Code   RO         7031    x$fpl$dnaninf       fz_wm.l(dnaninf.o)
    0x08006108   0x0000000c   Code   RO         7033    x$fpl$dretinf       fz_wm.l(dretinf.o)
    0x08006114   0x00000056   Code   RO         7019    x$fpl$f2d           fz_wm.l(f2d.o)
    0x0800616a   0x0000008c   Code   RO         7035    x$fpl$fnaninf       fz_wm.l(fnaninf.o)
    0x080061f6   0x0000000a   Code   RO         7160    x$fpl$fpinit        fz_wm.l(fpinit.o)
    0x08006200   0x0000000a   Code   RO         7037    x$fpl$fretinf       fz_wm.l(fretinf.o)
    0x0800620a   0x00000004   Code   RO         7021    x$fpl$printf1       fz_wm.l(printf1.o)
    0x0800620e   0x00000000   Code   RO         7039    x$fpl$usenofp       fz_wm.l(usenofp.o)
    0x0800620e   0x00000040   Data   RO         3170    .constdata          n32g430_rcc.o
    0x0800624e   0x000033f4   Data   RO         5810    .constdata          lcd.o
    0x08009642   0x00001900   Data   RO         6652    .constdata          ui.o
    0x0800af42   0x00000008   Data   RO         6783    .constdata          ui_adjust.o
    0x0800af4a   0x00000002   PAD
    0x0800af4c   0x00000094   Data   RO         7067    .constdata          c_w.l(bigflt0.o)
    0x0800afe0   0x0000001d   Data   RO         6653    .conststring        ui.o
    0x0800affd   0x00000003   PAD
    0x0800b000   0x00000056   Data   RO         6784    .conststring        ui_adjust.o
    0x0800b056   0x00000002   PAD
    0x0800b058   0x00000020   Data   RO         7235    Region$$Table       anon$$obj.o
    0x0800b078   0x0000001c   Data   RO         7091    locale$$data        c_w.l(lc_numeric_c.o)


    Execution Region RW_IRAM1 (Base: 0x20000000, Size: 0x00001cd8, Max: 0x00004000, ABSOLUTE, COMPRESSED[0x000000b8])

    Base Addr    Size         Type   Attr      Idx    E Section Name        Object

    0x20000000   0x00000004   Data   RW         5591    .data               system_n32g430.o
    0x20000004   0x00000005   Data   RW         5654    .data               main.o
    0x20000009   0x00000003   Data   RW         6446    .data               keyio.o
    0x2000000c   0x00000010   Data   RW         6530    .data               menu.o
    0x2000001c   0x00000035   Data   RW         6654    .data               ui.o
    0x20000051   0x00000002   Data   RW         6726    .data               ui_measure.o
    0x20000053   0x00000001   PAD
    0x20000054   0x0000019e   Data   RW         6785    .data               ui_adjust.o
    0x200001f2   0x00000002   PAD
    0x200001f4   0x00000020   Zero   RW         5970    .bss                adc.o
    0x20000214   0x00000012   Zero   RW         6033    .bss                spi.o
    0x20000226   0x00000002   PAD
    0x20000228   0x00000060   Zero   RW         6099    .bss                fs2711.o
    0x20000288   0x0000000e   Zero   RW         6330    .bss                flash.o
    0x20000296   0x00000002   PAD
    0x20000298   0x00000030   Zero   RW         6376    .bss                key.o
    0x200002c8   0x00000140   Zero   RW         6529    .bss                menu.o
    0x20000408   0x00000070   Zero   RW         6782    .bss                ui_adjust.o
    0x20000478   0x00000060   Zero   RW         7099    .bss                c_w.l(libspace.o)
    0x200004d8   0x00000300   Zero   RW            2    HEAP                startup_n32g430.o
    0x200007d8   0x00001500   Zero   RW            1    STACK               startup_n32g430.o


==============================================================================

Image component sizes


      Code (inc. data)   RO Data    RW Data    ZI Data      Debug   Object Name

       938         64          0          0         32       4953   adc.o
       246         14          0          0          0     344345   bsp_delay.o
       364         22          0          0          0      37038   decoy.o
       236         20          0          0         14       2244   flash.o
      1814        190          0          0         96       9544   fs2711.o
       726         52          0          0          0       6274   i2c.o
       744         32          0          0         48       4938   key.o
       204         32          0          3          0       2383   keyio.o
       662         16      13300          0          0       5534   lcd.o
       806         14          0          0          0       4086   lcd_init.o
       288         40          0          5          0       3243   main.o
      1296         78          0         16        320      11787   menu.o
       112         12          0          0          0       1071   misc.o
       872        104          0          0          0      12343   n32g430_adc.o
       276          0          0          0          0       9323   n32g430_dma.o
       334         40          0          0          0       4837   n32g430_flash.o
       346          0          0          0          0       6988   n32g430_gpio.o
        24          0          0          0          0       3357   n32g430_it.o
       908        154         64          0          0      13345   n32g430_rcc.o
       338         10          0          0          0       9796   n32g430_spi.o
       420         20          0          0          0      10815   n32g430_tim.o
       222         26          0          0         18       2266   spi.o
        64         26        276          0       6144        876   startup_n32g430.o
       104          8          0          0          0        580   sysclk.o
       452         54          0          4          0       2082   system_n32g430.o
       578         90       6429         53          0       5329   ui.o
      4540        384         94        414        112      13221   ui_adjust.o
       664        136          0          2          0       1920   ui_measure.o

    ----------------------------------------------------------------------
     18602       1638      20202        500       6788     534518   Object Totals
         0          0         32          0          0          0   (incl. Generated)
        24          0          7          3          4          0   (incl. Padding)

    ----------------------------------------------------------------------

      Code (inc. data)   RO Data    RW Data    ZI Data      Debug   Library Member Name

        90          0          0          0          0          0   __dczerorl2.o
         8          0          0          0          0         68   __main.o
       284          0          0          0          0        156   __printf_wp.o
         0          0          0          0          0          0   __rtentry.o
        12          0          0          0          0          0   __rtentry2.o
         6          0          0          0          0          0   __rtentry4.o
        52          8          0          0          0          0   __scatter.o
        28          0          0          0          0          0   __scatter_zi.o
        48          6          0          0          0         96   _printf_char_common.o
         6          0          0          0          0          0   _printf_f.o
      1050          0          0          0          0        216   _printf_fp_dec.o
       128         16          0          0          0         84   _printf_fp_infnan.o
         0          0          0          0          0          0   _printf_percent.o
         4          0          0          0          0          0   _printf_percent_end.o
        10          0          0          0          0         68   _sputc.o
       220          4        148          0          0         96   bigflt0.o
      1910        128          0          0          0        672   btod.o
        18          0          0          0          0         80   exit.o
         6          0          0          0          0        152   heapauxi.o
         0          0          0          0          0          0   indicate_semi.o
        44         10         28          0          0         76   lc_numeric_c.o
         2          0          0          0          0          0   libinit.o
        22          0          0          0          0          0   libinit2.o
         2          0          0          0          0          0   libshutdown.o
         2          0          0          0          0          0   libshutdown2.o
         8          4          0          0         96         68   libspace.o
       138          0          0          0          0         80   lludiv10.o
        40          6          0          0          0         84   noretval__2sprintf.o
         8          4          0          0          0         68   rt_locale_intlibspace.o
        68          0          0          0          0         68   rt_memclr.o
        78          0          0          0          0         80   rt_memclr_w.o
         2          0          0          0          0          0   rtexit.o
        10          0          0          0          0          0   rtexit2.o
       128          0          0          0          0         68   strcmpv7m.o
        62          0          0          0          0         76   strlen.o
        12          4          0          0          0         68   sys_exit.o
        74          0          0          0          0         80   sys_stackheap_outer.o
         2          0          0          0          0         68   use_no_semi.o
        98          4          0          0          0        140   d2f.o
       688        140          0          0          0        256   ddiv.o
        38          0          0          0          0        116   dflt_clz.o
       340         12          0          0          0        152   dmul.o
       156          4          0          0          0        140   dnaninf.o
        12          0          0          0          0        116   dretinf.o
        86          4          0          0          0        132   f2d.o
       140          4          0          0          0        132   fnaninf.o
        10          0          0          0          0        116   fpinit.o
        10          0          0          0          0        116   fretinf.o
         4          0          0          0          0        116   printf1.o
         0          0          0          0          0          0   usenofp.o
        48          0          0          0          0        124   fpclassify.o

    ----------------------------------------------------------------------
      6224        358        176          0         96       4228   Library Totals
        12          0          0          0          0          0   (incl. Padding)

    ----------------------------------------------------------------------

      Code (inc. data)   RO Data    RW Data    ZI Data      Debug   Library Name

      4582        190        176          0         96       2572   c_w.l
      1582        168          0          0          0       1532   fz_wm.l
        48          0          0          0          0        124   m_wm.l

    ----------------------------------------------------------------------
      6224        358        176          0         96       4228   Library Totals

    ----------------------------------------------------------------------

==============================================================================


      Code (inc. data)   RO Data    RW Data    ZI Data      Debug   

     24826       1996      20378        500       6884     513342   Grand Totals
     24826       1996      20378        184       6884     513342   ELF Image Totals (compressed)
     24826       1996      20378        184          0          0   ROM Totals

==============================================================================

    Total RO  Size (Code + RO Data)                45204 (  44.14kB)
    Total RW  Size (RW Data + ZI Data)              7384 (   7.21kB)
    Total ROM Size (Code + RO Data + RW Data)      45388 (  44.32kB)

==============================================================================

